(dp0
I0
(lp1
I840
aI278
aI911
aI1816
aI2105
aI758
asI1
(lp2
I1412
aI449
aI731
aI10
aI636
aI1479
asI2
(lp3
I1282
aI442
aI1544
aI1587
aI958
aI1236
asI3
(lp4
I250
aI1495
aI1367
aI426
aI1456
aI1286
asI4
(lp5
I2043
aI566
aI1586
aI23
aI218
aI879
asI5
(lp6
I1212
aI1769
aI1696
aI1889
aI1735
aI1818
asI6
(lp7
I1373
aI888
aI163
aI1234
aI137
aI1786
asI7
(lp8
I390
aI1030
aI1858
aI391
aI1242
aI770
asI8
(lp9
I1599
aI57
aI218
aI946
aI997
aI1874
asI9
(lp10
I1734
aI187
aI762
aI1114
aI1512
aI798
asI10
(lp11
I749
aI263
aI1
aI1476
aI354
aI1490
asI11
(lp12
I646
aI641
aI1060
aI1364
aI1083
aI1157
asI12
(lp13
I1133
aI2110
aI2023
aI1046
aI299
aI278
asI13
(lp14
I1254
aI249
aI355
aI1825
aI202
aI1983
asI14
(lp15
I1438
aI2013
aI2024
aI2057
aI1055
aI935
asI15
(lp16
I1290
aI962
aI133
aI1238
aI1270
aI1244
asI16
(lp17
I1890
aI1096
aI1946
aI1389
aI1740
aI1396
asI17
(lp18
I449
aI127
aI141
aI112
aI1593
aI1000
asI18
(lp19
I481
aI1439
aI409
aI1449
aI1040
aI1063
asI19
(lp20
I1844
aI1949
aI1285
aI2053
aI1666
aI1623
asI20
(lp21
I2009
aI160
aI286
aI1369
aI26
aI543
asI21
(lp22
I1670
aI1250
aI1091
aI348
aI2034
aI658
asI22
(lp23
I500
aI272
aI1447
aI674
aI352
aI236
asI23
(lp24
I1989
aI898
aI4
aI1365
aI361
aI1650
asI24
(lp25
I1883
aI66
aI679
aI263
aI1337
aI548
asI25
(lp26
I335
aI586
aI427
aI2054
aI942
aI1387
asI26
(lp27
I1747
aI745
aI2157
aI1860
aI280
aI20
asI27
(lp28
I145
aI767
aI579
aI2078
aI682
aI1241
asI28
(lp29
I691
aI273
aI1634
aI1970
aI411
aI414
asI29
(lp30
I104
aI1857
aI1843
aI1041
aI750
aI1486
asI30
(lp31
I732
aI1399
aI642
aI1031
aI2153
aI1540
asI31
(lp32
I1049
aI2173
aI1443
aI123
aI2007
aI451
asI32
(lp33
I997
aI896
aI1605
aI1782
aI107
aI597
asI33
(lp34
I645
aI117
aI432
aI98
aI1665
aI1230
asI34
(lp35
I2096
aI166
aI35
aI816
aI343
aI1699
asI35
(lp36
I315
aI1221
aI1245
aI34
aI160
aI94
asI36
(lp37
I1724
aI1944
aI1807
aI641
aI235
aI1385
asI37
(lp38
I2095
aI396
aI98
aI1317
aI1388
aI1153
asI38
(lp39
I1331
aI1018
aI961
aI766
aI1730
aI862
asI39
(lp40
I1587
aI1555
aI186
aI1932
aI1112
aI1973
asI40
(lp41
I1116
aI1981
aI1322
aI2012
aI1343
aI113
asI41
(lp42
I94
aI385
aI1641
aI62
aI1577
aI176
asI42
(lp43
I249
aI973
aI1724
aI1374
aI1647
aI1727
asI43
(lp44
I740
aI748
aI1047
aI1965
aI1045
aI1249
asI44
(lp45
I712
aI1583
aI855
aI1183
aI1418
aI1884
asI45
(lp46
I255
aI430
aI2056
aI2050
aI782
aI387
asI46
(lp47
I1213
aI1209
aI1496
aI411
aI905
aI1435
asI47
(lp48
I1651
aI2041
aI1604
aI599
aI62
aI1364
asI48
(lp49
I1284
aI355
aI1510
aI1434
aI2107
aI1626
asI49
(lp50
I1526
aI569
aI2158
aI561
aI647
aI1077
asI50
(lp51
I832
aI1481
aI1116
aI546
aI1434
aI1288
asI51
(lp52
I1627
aI170
aI2004
aI1996
aI619
aI765
asI52
(lp53
I457
aI720
aI380
aI283
aI931
aI1969
asI53
(lp54
I365
aI614
aI1013
aI1895
aI287
aI310
asI54
(lp55
I2164
aI658
aI2099
aI796
aI986
aI1747
asI55
(lp56
I1597
aI1165
aI704
aI610
aI1993
aI1060
asI56
(lp57
I686
aI1954
aI1376
aI1124
aI1053
aI738
asI57
(lp58
I8
aI1020
aI969
aI1254
aI265
aI1641
asI58
(lp59
I171
aI637
aI1788
aI1898
aI898
aI1854
asI59
(lp60
I1180
aI2094
aI345
aI885
aI733
aI876
asI60
(lp61
I1820
aI1902
aI1896
aI1582
aI587
aI1140
asI61
(lp62
I1054
aI1325
aI287
aI1842
aI648
aI147
asI62
(lp63
I795
aI1476
aI41
aI732
aI1683
aI47
asI63
(lp64
I1292
aI465
aI411
aI639
aI494
aI1361
asI64
(lp65
I1501
aI1060
aI1450
aI1628
aI655
aI432
asI65
(lp66
I1920
aI764
aI351
aI137
aI1128
aI1629
asI66
(lp67
I24
aI1105
aI1438
aI2046
aI79
aI590
asI67
(lp68
I904
aI848
aI1457
aI648
aI362
aI1245
asI68
(lp69
I74
aI407
aI127
aI1808
aI2080
aI2067
asI69
(lp70
I635
aI1164
aI813
aI1871
aI814
aI542
asI70
(lp71
I353
aI1411
aI1474
aI937
aI1947
aI1955
asI71
(lp72
I392
aI597
aI547
aI311
aI2038
aI1061
asI72
(lp73
I116
aI304
aI950
aI539
aI1524
aI1443
asI73
(lp74
I430
aI192
aI863
aI531
aI2112
aI1531
asI74
(lp75
I1363
aI68
aI972
aI1629
aI1462
aI2049
asI75
(lp76
I1565
aI1004
aI2092
aI1802
aI350
aI1365
asI76
(lp77
I491
aI854
aI1814
aI494
aI1048
aI1876
asI77
(lp78
I2090
aI211
aI658
aI1752
aI581
aI732
asI78
(lp79
I2127
aI2028
aI1303
aI1519
aI142
aI223
asI79
(lp80
I139
aI497
aI1416
aI873
aI913
aI66
asI80
(lp81
I1561
aI1819
aI1490
aI680
aI1533
aI489
asI81
(lp82
I916
aI1697
aI572
aI301
aI924
aI1165
asI82
(lp83
I1822
aI1901
aI1603
aI584
aI123
aI739
asI83
(lp84
I1945
aI1380
aI367
aI421
aI1712
aI311
asI84
(lp85
I1037
aI1836
aI407
aI442
aI150
aI736
asI85
(lp86
I987
aI1546
aI228
aI173
aI888
aI200
asI86
(lp87
I868
aI1781
aI165
aI634
aI1765
aI373
asI87
(lp88
I1787
aI1327
aI592
aI506
aI2160
aI632
asI88
(lp89
I1972
aI287
aI1985
aI230
aI1697
aI1095
asI89
(lp90
I1704
aI2087
aI1138
aI722
aI1003
aI1052
asI90
(lp91
I305
aI1997
aI1967
aI890
aI1362
aI1618
asI91
(lp92
I2027
aI1979
aI754
aI953
aI1226
aI2052
asI92
(lp93
I1219
aI293
aI1294
aI632
aI684
aI1603
asI93
(lp94
I2032
aI1576
aI270
aI1763
aI111
aI1678
asI94
(lp95
I1910
aI41
aI2149
aI1129
aI35
aI216
asI95
(lp96
I867
aI1609
aI1717
aI1558
aI472
aI429
asI96
(lp97
I1518
aI1323
aI1999
aI638
aI1329
aI245
asI97
(lp98
I515
aI1610
aI1952
aI2049
aI560
aI1266
asI98
(lp99
I852
aI345
aI33
aI37
aI1373
aI847
asI99
(lp100
I293
aI1498
aI1694
aI1403
aI1790
aI1962
asI100
(lp101
I1970
aI1407
aI1531
aI229
aI1645
aI1588
asI101
(lp102
I473
aI197
aI1362
aI2028
aI326
aI1233
asI102
(lp103
I1666
aI1537
aI1939
aI1975
aI2010
aI1252
asI103
(lp104
I824
aI643
aI2032
aI1989
aI1375
aI1160
asI104
(lp105
I1581
aI29
aI249
aI1689
aI1549
aI2045
asI105
(lp106
I758
aI1428
aI1767
aI1250
aI221
aI1007
asI106
(lp107
I1081
aI1023
aI489
aI209
aI616
aI319
asI107
(lp108
I2102
aI470
aI197
aI1642
aI519
aI32
asI108
(lp109
I669
aI810
aI1840
aI1305
aI1181
aI1805
asI109
(lp110
I2078
aI1731
aI315
aI899
aI2139
aI589
asI110
(lp111
I1376
aI1601
aI1702
aI803
aI656
aI1744
asI111
(lp112
I1590
aI1575
aI1167
aI503
aI254
aI93
asI112
(lp113
I926
aI132
aI17
aI1567
aI1839
aI1138
asI113
(lp114
I458
aI1942
aI2027
aI907
aI40
aI825
asI114
(lp115
I1799
aI762
aI602
aI1406
aI1700
aI724
asI115
(lp116
I1588
aI858
aI1155
aI1743
aI524
aI502
asI116
(lp117
I920
aI72
aI278
aI2029
aI688
aI948
asI117
(lp118
I33
aI1174
aI1305
aI1333
aI703
aI1592
asI118
(lp119
I1824
aI1602
aI1541
aI2080
aI1251
aI1926
asI119
(lp120
I487
aI1532
aI479
aI2112
aI1258
aI1578
asI120
(lp121
I1749
aI765
aI316
aI1219
aI1807
aI2173
asI121
(lp122
I2154
aI1391
aI204
aI159
aI1228
aI1402
asI122
(lp123
I1156
aI1047
aI382
aI374
aI1651
aI183
asI123
(lp124
I578
aI1915
aI31
aI601
aI1158
aI82
asI124
(lp125
I807
aI1202
aI1211
aI687
aI845
aI644
asI125
(lp126
I1723
aI1973
aI2102
aI1727
aI1437
aI1616
asI126
(lp127
I1896
aI1821
aI1566
aI1537
aI1133
aI884
asI127
(lp128
I17
aI823
aI2116
aI68
aI228
aI650
asI128
(lp129
I2053
aI1588
aI1867
aI1670
aI883
aI1594
asI129
(lp130
I1825
aI342
aI1455
aI1985
aI800
aI553
asI130
(lp131
I262
aI1066
aI1654
aI1486
aI1098
aI705
asI131
(lp132
I1653
aI1196
aI1498
aI815
aI708
aI1379
asI132
(lp133
I112
aI590
aI1160
aI2113
aI577
aI1386
asI133
(lp134
I1214
aI2011
aI985
aI15
aI1718
aI1332
asI134
(lp135
I588
aI878
aI645
aI1325
aI1796
aI2081
asI135
(lp136
I2166
aI1088
aI2177
aI1995
aI323
aI1059
asI136
(lp137
I1181
aI1958
aI1975
aI529
aI1832
aI497
asI137
(lp138
I1047
aI1738
aI65
aI1694
aI893
aI6
asI138
(lp139
I972
aI1132
aI467
aI493
aI2015
aI1315
asI139
(lp140
I1168
aI79
aI455
aI702
aI1962
aI532
asI140
(lp141
I1299
aI560
aI2015
aI1087
aI779
aI1009
asI141
(lp142
I1517
aI1623
aI207
aI17
aI1124
aI1785
asI142
(lp143
I1094
aI482
aI1806
aI296
aI1272
aI78
asI143
(lp144
I575
aI1547
aI564
aI1529
aI1560
aI1010
asI144
(lp145
I624
aI1459
aI2162
aI1101
aI1058
aI2180
asI145
(lp146
I1535
aI27
aI1660
aI393
aI398
aI467
asI146
(lp147
I1746
aI982
aI2094
aI204
aI686
aI907
asI147
(lp148
I1427
aI1396
aI927
aI207
aI61
aI1491
asI148
(lp149
I967
aI2045
aI2108
aI2161
aI1723
aI1336
asI149
(lp150
I1050
aI719
aI1401
aI1001
aI226
aI716
asI150
(lp151
I1039
aI515
aI1656
aI298
aI394
aI84
asI151
(lp152
I1765
aI1234
aI1592
aI1675
aI659
aI1414
asI152
(lp153
I829
aI736
aI1655
aI1966
aI315
aI1564
asI153
(lp154
I1569
aI1314
aI405
aI1581
aI775
aI1247
asI154
(lp155
I379
aI2134
aI1853
aI1056
aI476
aI1766
asI155
(lp156
I1312
aI1741
aI1780
aI2104
aI1380
aI541
asI156
(lp157
I1245
aI535
aI1095
aI2137
aI1657
aI2028
asI157
(lp158
I1142
aI796
aI710
aI1786
aI1425
aI997
asI158
(lp159
I1155
aI1820
aI1199
aI1330
aI400
aI234
asI159
(lp160
I448
aI607
aI121
aI1769
aI1340
aI355
asI160
(lp161
I20
aI1258
aI1830
aI1883
aI2002
aI35
asI161
(lp162
I327
aI269
aI379
aI590
aI199
aI1457
asI162
(lp163
I657
aI1549
aI817
aI1999
aI1655
aI819
asI163
(lp164
I272
aI543
aI646
aI6
aI878
aI1600
asI164
(lp165
I236
aI589
aI2175
aI1162
aI623
aI1919
asI165
(lp166
I432
aI556
aI328
aI86
aI1063
aI1255
asI166
(lp167
I34
aI1803
aI1983
aI1164
aI1868
aI1739
asI167
(lp168
I1275
aI1553
aI1802
aI437
aI2172
aI2133
asI168
(lp169
I1837
aI1050
aI763
aI1591
aI1255
aI1382
asI169
(lp170
I969
aI985
aI1680
aI769
aI966
aI937
asI170
(lp171
I51
aI2117
aI659
aI294
aI1142
aI808
asI171
(lp172
I1007
aI58
aI2070
aI1716
aI211
aI381
asI172
(lp173
I1873
aI1578
aI1550
aI1141
aI1537
aI384
asI173
(lp174
I1263
aI2147
aI85
aI227
aI1569
aI1507
asI174
(lp175
I1057
aI829
aI2011
aI1335
aI553
aI507
asI175
(lp176
I1593
aI391
aI1616
aI441
aI586
aI755
asI176
(lp177
I501
aI1217
aI792
aI1652
aI41
aI1433
asI177
(lp178
I424
aI551
aI245
aI985
aI242
aI1112
asI178
(lp179
I2165
aI2121
aI619
aI1649
aI1621
aI1730
asI179
(lp180
I1337
aI1307
aI1789
aI1048
aI1852
aI1780
asI180
(lp181
I883
aI1111
aI986
aI246
aI1170
aI1754
asI181
(lp182
I264
aI1131
aI1489
aI1635
aI1280
aI860
asI182
(lp183
I2063
aI1273
aI430
aI467
aI1483
aI1830
asI183
(lp184
I520
aI1590
aI840
aI2087
aI122
aI1353
asI184
(lp185
I1544
aI1027
aI358
aI1119
aI1551
aI1020
asI185
(lp186
I853
aI212
aI1030
aI2128
aI270
aI1624
asI186
(lp187
I464
aI1376
aI879
aI39
aI294
aI1169
asI187
(lp188
I9
aI534
aI2069
aI851
aI1047
aI476
asI188
(lp189
I471
aI1725
aI1922
aI1268
aI1076
aI1694
asI189
(lp190
I2018
aI286
aI1725
aI930
aI1980
aI1164
asI190
(lp191
I818
aI831
aI386
aI269
aI1966
aI1076
asI191
(lp192
I227
aI1084
aI1808
aI1204
aI480
aI646
asI192
(lp193
I73
aI1510
aI1441
aI419
aI629
aI677
asI193
(lp194
I2168
aI1077
aI1329
aI1080
aI1470
aI1351
asI194
(lp195
I1484
aI1619
aI279
aI2127
aI1335
aI702
asI195
(lp196
I1306
aI1760
aI1897
aI1978
aI744
aI1348
asI196
(lp197
I1933
aI865
aI1916
aI536
aI2081
aI1008
asI197
(lp198
I101
aI1394
aI1606
aI107
aI1711
aI1036
asI198
(lp199
I1851
aI739
aI1797
aI1807
aI1000
aI769
asI199
(lp200
I2136
aI1514
aI2036
aI936
aI1209
aI161
asI200
(lp201
I431
aI1186
aI2046
aI1647
aI85
aI817
asI201
(lp202
I1276
aI425
aI1338
aI1550
aI1781
aI653
asI202
(lp203
I1311
aI876
aI1469
aI1053
aI1110
aI13
asI203
(lp204
I248
aI1346
aI1066
aI2151
aI1883
aI1039
asI204
(lp205
I1885
aI1034
aI146
aI121
aI1264
aI1372
asI205
(lp206
I1198
aI832
aI1186
aI2009
aI1803
aI214
asI206
(lp207
I1354
aI1246
aI812
aI664
aI356
aI1107
asI207
(lp208
I1153
aI1687
aI147
aI141
aI740
aI900
asI208
(lp209
I1131
aI1016
aI922
aI260
aI1454
aI359
asI209
(lp210
I542
aI366
aI106
aI1117
aI1214
aI574
asI210
(lp211
I655
aI1409
aI437
aI1598
aI1539
aI1284
asI211
(lp212
I77
aI1761
aI1253
aI1771
aI527
aI171
asI212
(lp213
I185
aI493
aI319
aI1686
aI995
aI1632
asI213
(lp214
I1040
aI1972
aI897
aI245
aI219
aI1105
asI214
(lp215
I827
aI2052
aI1044
aI1311
aI205
aI1338
asI215
(lp216
I330
aI1017
aI1563
aI642
aI1489
aI959
asI216
(lp217
I1461
aI480
aI1771
aI328
aI94
aI1612
asI217
(lp218
I1482
aI414
aI696
aI2090
aI537
aI1130
asI218
(lp219
I285
aI1771
aI1790
aI8
aI1279
aI4
asI219
(lp220
I923
aI2074
aI639
aI1732
aI1334
aI213
asI220
(lp221
I415
aI349
aI1678
aI1327
aI1639
aI1265
asI221
(lp222
I1696
aI441
aI534
aI1054
aI2101
aI105
asI222
(lp223
I460
aI1631
aI1667
aI1055
aI1349
aI455
asI223
(lp224
I1123
aI972
aI2138
aI2077
aI78
aI1246
asI224
(lp225
I778
aI835
aI1045
aI1013
aI1565
aI549
asI225
(lp226
I1447
aI2009
aI1818
aI2079
aI1624
aI340
asI226
(lp227
I1792
aI1869
aI514
aI1880
aI675
aI149
asI227
(lp228
I563
aI191
aI173
aI1159
aI1867
aI482
asI228
(lp229
I2040
aI1463
aI2057
aI85
aI1495
aI127
asI229
(lp230
I1889
aI994
aI100
aI1426
aI2113
aI1452
asI230
(lp231
I1108
aI2099
aI88
aI1659
aI1346
aI239
asI231
(lp232
I1281
aI1531
aI1460
aI1875
aI1091
aI998
asI232
(lp233
I1709
aI1515
aI2151
aI1864
aI1880
aI464
asI233
(lp234
I1614
aI464
aI654
aI968
aI1416
aI773
asI234
(lp235
I937
aI1787
aI1502
aI1010
aI158
aI800
asI235
(lp236
I502
aI1961
aI1538
aI1622
aI1031
aI36
asI236
(lp237
I877
aI164
aI505
aI1312
aI22
aI277
asI237
(lp238
I1031
aI1998
aI1360
aI1346
aI1410
aI722
asI238
(lp239
I1151
aI298
aI1493
aI1492
aI1809
aI1847
asI239
(lp240
I844
aI965
aI660
aI1014
aI230
aI1027
asI240
(lp241
I278
aI571
aI988
aI1660
aI1970
aI1575
asI241
(lp242
I1773
aI1579
aI829
aI1418
aI2161
aI1115
asI242
(lp243
I2093
aI1525
aI1684
aI1984
aI881
aI177
asI243
(lp244
I1877
aI1679
aI880
aI2150
aI256
aI2111
asI244
(lp245
I1578
aI1876
aI1899
aI1586
aI1075
aI1299
asI245
(lp246
I523
aI1207
aI213
aI177
aI96
aI1648
asI246
(lp247
I1720
aI1239
aI180
aI643
aI1808
aI631
asI247
(lp248
I537
aI1276
aI810
aI1217
aI1229
aI871
asI248
(lp249
I508
aI203
aI1758
aI1739
aI1323
aI444
asI249
(lp250
I13
aI42
aI1169
aI104
aI1064
aI1911
asI250
(lp251
I1070
aI3
aI1521
aI1444
aI1185
aI1088
asI251
(lp252
I2105
aI689
aI606
aI596
aI281
aI1483
asI252
(lp253
I1364
aI677
aI1439
aI1090
aI580
aI1775
asI253
(lp254
I1623
aI1232
aI732
aI1178
aI1648
aI868
asI254
(lp255
I1598
aI1696
aI1574
aI789
aI419
aI111
asI255
(lp256
I1948
aI45
aI965
aI1828
aI1218
aI466
asI256
(lp257
I755
aI444
aI1923
aI2001
aI984
aI243
asI257
(lp258
I1649
aI379
aI285
aI763
aI917
aI836
asI258
(lp259
I884
aI458
aI323
aI403
aI1599
aI1515
asI259
(lp260
I1760
aI2138
aI701
aI756
aI785
aI721
asI260
(lp261
I994
aI1294
aI208
aI1953
aI1205
aI473
asI261
(lp262
I1520
aI333
aI912
aI2126
aI1862
aI1460
asI262
(lp263
I682
aI130
aI623
aI908
aI932
aI2046
asI263
(lp264
I10
aI1638
aI24
aI1724
aI1982
aI1218
asI264
(lp265
I1341
aI181
aI1105
aI836
aI1889
aI1436
asI265
(lp266
I842
aI1389
aI290
aI1269
aI1833
aI57
asI266
(lp267
I817
aI1119
aI2165
aI1085
aI1164
aI1150
asI267
(lp268
I638
aI337
aI759
aI427
aI1278
aI1750
asI268
(lp269
I629
aI1585
aI918
aI834
aI1971
aI1183
asI269
(lp270
I161
aI1677
aI190
aI880
aI854
aI776
asI270
(lp271
I1964
aI1128
aI2117
aI93
aI1615
aI185
asI271
(lp272
I1187
aI2084
aI1124
aI1887
aI1963
aI434
asI272
(lp273
I22
aI163
aI962
aI278
aI1915
aI1523
asI273
(lp274
I28
aI793
aI1530
aI1249
aI1295
aI282
asI274
(lp275
I2125
aI670
aI968
aI2177
aI1902
aI1346
asI275
(lp276
I2110
aI563
aI907
aI1347
aI597
aI1281
asI276
(lp277
I1107
aI1187
aI2026
aI1959
aI732
aI936
asI277
(lp278
I1030
aI2039
aI1109
aI407
aI236
aI1513
asI278
(lp279
I0
aI240
aI272
aI116
aI12
aI918
asI279
(lp280
I695
aI1713
aI1821
aI194
aI1613
aI2068
asI280
(lp281
I843
aI2165
aI326
aI611
aI1755
aI26
asI281
(lp282
I1511
aI903
aI488
aI781
aI1384
aI251
asI282
(lp283
I1706
aI1094
aI2110
aI1244
aI273
aI562
asI283
(lp284
I1105
aI453
aI52
aI1191
aI1858
aI1057
asI284
(lp285
I1874
aI1266
aI1764
aI1909
aI2059
aI1330
asI285
(lp286
I1154
aI218
aI1528
aI257
aI311
aI1394
asI286
(lp287
I189
aI1540
aI1422
aI20
aI866
aI1978
asI287
(lp288
I88
aI820
aI1454
aI61
aI492
aI53
asI288
(lp289
I1584
aI459
aI1846
aI1443
aI1570
aI1717
asI289
(lp290
I1210
aI1908
aI716
aI1801
aI423
aI1972
asI290
(lp291
I426
aI1739
aI1837
aI265
aI890
aI672
asI291
(lp292
I1079
aI1755
aI983
aI736
aI999
aI1658
asI292
(lp293
I1983
aI1449
aI1499
aI340
aI1999
aI1948
asI293
(lp294
I92
aI99
aI934
aI486
aI1804
aI1896
asI294
(lp295
I1600
aI1835
aI170
aI774
aI396
aI186
asI295
(lp296
I625
aI851
aI672
aI1411
aI1922
aI613
asI296
(lp297
I777
aI980
aI142
aI1997
aI2156
aI2021
asI297
(lp298
I1737
aI1951
aI1054
aI1247
aI1221
aI1795
asI298
(lp299
I238
aI2107
aI150
aI360
aI1828
aI783
asI299
(lp300
I307
aI1109
aI943
aI983
aI2066
aI12
asI300
(lp301
I1086
aI2116
aI393
aI986
aI634
aI1826
asI301
(lp302
I879
aI892
aI81
aI1994
aI1690
aI1133
asI302
(lp303
I1676
aI1117
aI1477
aI379
aI900
aI974
asI303
(lp304
I2011
aI1037
aI1643
aI848
aI533
aI1737
asI304
(lp305
I72
aI486
aI1873
aI721
aI938
aI565
asI305
(lp306
I1248
aI90
aI1721
aI724
aI1435
aI663
asI306
(lp307
I354
aI1582
aI363
aI389
aI1262
aI1173
asI307
(lp308
I656
aI299
aI1772
aI1532
aI1793
aI2063
asI308
(lp309
I1321
aI1233
aI831
aI1923
aI1037
aI1195
asI309
(lp310
I1960
aI775
aI2144
aI1983
aI702
aI561
asI310
(lp311
I1867
aI1141
aI1595
aI1390
aI53
aI2183
asI311
(lp312
I1728
aI1931
aI71
aI637
aI83
aI285
asI312
(lp313
I1861
aI1193
aI1212
aI1673
aI1198
aI1542
asI313
(lp314
I673
aI1921
aI1166
aI1210
aI376
aI1345
asI314
(lp315
I1182
aI608
aI1976
aI479
aI1429
aI710
asI315
(lp316
I1543
aI35
aI461
aI109
aI2152
aI152
asI316
(lp317
I1879
aI795
aI1244
aI120
aI1043
aI1907
asI317
(lp318
I2182
aI1747
aI982
aI1134
aI1299
aI496
asI318
(lp319
I548
aI457
aI1759
aI870
aI1819
aI1229
asI319
(lp320
I1085
aI1160
aI603
aI212
aI106
aI1738
asI320
(lp321
I976
aI758
aI2112
aI633
aI1406
aI368
asI321
(lp322
I1519
aI1817
aI849
aI1326
aI1818
aI415
asI322
(lp323
I1665
aI1357
aI1553
aI1331
aI551
aI558
asI323
(lp324
I1854
aI1374
aI556
aI258
aI2108
aI135
asI324
(lp325
I1631
aI1267
aI975
aI802
aI828
aI1001
asI325
(lp326
I1034
aI1080
aI429
aI2148
aI1933
aI554
asI326
(lp327
I756
aI581
aI1041
aI280
aI1595
aI101
asI327
(lp328
I495
aI161
aI860
aI1363
aI369
aI1103
asI328
(lp329
I1660
aI1223
aI216
aI165
aI1578
aI2167
asI329
(lp330
I1929
aI1260
aI956
aI861
aI2004
aI1825
asI330
(lp331
I1797
aI215
aI1452
aI1481
aI2145
aI690
asI331
(lp332
I1382
aI1432
aI1775
aI1597
aI1904
aI1698
asI332
(lp333
I1954
aI1482
aI1371
aI1765
aI1734
aI1023
asI333
(lp334
I261
aI1719
aI1214
aI570
aI2054
aI1362
asI334
(lp335
I1385
aI1204
aI344
aI1458
aI1977
aI1028
asI335
(lp336
I1167
aI25
aI1492
aI1876
aI773
aI1172
asI336
(lp337
I1353
aI812
aI1741
aI435
aI1036
aI563
asI337
(lp338
I267
aI478
aI2087
aI827
aI668
aI367
asI338
(lp339
I744
aI1123
aI720
aI1430
aI1066
aI1141
asI339
(lp340
I505
aI1031
aI1635
aI2088
aI816
aI911
asI340
(lp341
I1492
aI761
aI292
aI2027
aI225
aI1065
asI341
(lp342
I439
aI496
aI1880
aI747
aI1307
aI1897
asI342
(lp343
I129
aI654
aI959
aI1360
aI2064
aI1407
asI343
(lp344
I407
aI1115
aI802
aI1549
aI728
aI34
asI344
(lp345
I1356
aI2115
aI573
aI334
aI936
aI968
asI345
(lp346
I98
aI1626
aI1658
aI59
aI1674
aI667
asI346
(lp347
I2140
aI697
aI1411
aI1917
aI1405
aI1928
asI347
(lp348
I752
aI1511
aI828
aI817
aI1056
aI1788
asI348
(lp349
I1242
aI613
aI21
aI1456
aI719
aI999
asI349
(lp350
I220
aI1945
aI1092
aI922
aI892
aI687
asI350
(lp351
I639
aI701
aI1276
aI1776
aI2171
aI75
asI351
(lp352
I973
aI673
aI1526
aI65
aI546
aI579
asI352
(lp353
I1648
aI754
aI1754
aI617
aI1469
aI22
asI353
(lp354
I2088
aI70
aI1363
aI2093
aI457
aI1152
asI354
(lp355
I1967
aI306
aI1731
aI1452
aI949
aI10
asI355
(lp356
I48
aI822
aI578
aI13
aI159
aI1527
asI356
(lp357
I1589
aI570
aI1917
aI1240
aI2021
aI206
asI357
(lp358
I954
aI852
aI734
aI1952
aI1407
aI1147
asI358
(lp359
I1527
aI1285
aI1964
aI184
aI2116
aI1959
asI359
(lp360
I1464
aI399
aI1144
aI2134
aI208
aI1922
asI360
(lp361
I1496
aI879
aI298
aI1814
aI1679
aI1445
asI361
(lp362
I1878
aI1629
aI1849
aI1033
aI1237
aI23
asI362
(lp363
I363
aI1424
aI408
aI1934
aI1256
aI67
asI363
(lp364
I1340
aI362
aI1795
aI306
aI397
aI1917
asI364
(lp365
I1468
aI489
aI1283
aI734
aI823
aI1238
asI365
(lp366
I1207
aI53
aI438
aI1721
aI1044
aI1431
asI366
(lp367
I209
aI2167
aI1958
aI746
aI1531
aI1815
asI367
(lp368
I787
aI915
aI930
aI83
aI337
aI887
asI368
(lp369
I615
aI904
aI1011
aI1730
aI320
aI1214
asI369
(lp370
I469
aI874
aI470
aI2020
aI661
aI327
asI370
(lp371
I786
aI1343
aI901
aI1774
aI736
aI1980
asI371
(lp372
I819
aI1386
aI1357
aI542
aI1616
aI1398
asI372
(lp373
I1435
aI1073
aI475
aI2111
aI807
aI772
asI373
(lp374
I1898
aI1375
aI1004
aI673
aI86
aI607
asI374
(lp375
I1262
aI1859
aI122
aI1633
aI2099
aI2010
asI375
(lp376
I1745
aI870
aI2050
aI1315
aI1945
aI1764
asI376
(lp377
I1273
aI1732
aI1878
aI1024
aI1969
aI313
asI377
(lp378
I1692
aI797
aI1175
aI1641
aI1144
aI731
asI378
(lp379
I2026
aI1743
aI1272
aI1413
aI1496
aI1635
asI379
(lp380
I257
aI154
aI302
aI161
aI981
aI1605
asI380
(lp381
I674
aI576
aI536
aI52
aI742
aI424
asI381
(lp382
I849
aI1858
aI766
aI1947
aI171
aI1139
asI382
(lp383
I1764
aI1136
aI747
aI122
aI663
aI960
asI383
(lp384
I1328
aI1649
aI1037
aI2044
aI2051
aI1434
asI384
(lp385
I1018
aI631
aI861
aI844
aI172
aI1054
asI385
(lp386
I41
aI998
aI1886
aI1394
aI1764
aI1423
asI386
(lp387
I1044
aI2151
aI512
aI190
aI1562
aI782
asI387
(lp388
I1694
aI2075
aI2078
aI626
aI45
aI1755
asI388
(lp389
I771
aI1002
aI915
aI965
aI2044
aI906
asI389
(lp390
I1555
aI2073
aI306
aI830
aI1885
aI440
asI390
(lp391
I979
aI7
aI1201
aI1881
aI1363
aI656
asI391
(lp392
I175
aI993
aI7
aI1071
aI2136
aI1031
asI392
(lp393
I1470
aI71
aI706
aI1665
aI1544
aI1403
asI393
(lp394
I837
aI706
aI145
aI300
aI1254
aI1968
asI394
(lp395
I719
aI1598
aI832
aI715
aI1013
aI150
asI395
(lp396
I474
aI1800
aI1503
aI821
aI1361
aI1234
asI396
(lp397
I37
aI620
aI1891
aI1007
aI2093
aI294
asI397
(lp398
I931
aI1130
aI1394
aI1648
aI541
aI363
asI398
(lp399
I1119
aI1359
aI1012
aI855
aI903
aI145
asI399
(lp400
I359
aI504
aI1140
aI1120
aI988
aI1684
asI400
(lp401
I1457
aI1903
aI1889
aI1359
aI1247
aI158
asI401
(lp402
I1855
aI975
aI2001
aI1245
aI777
aI2144
asI402
(lp403
I1233
aI1216
aI1074
aI657
aI1293
aI714
asI403
(lp404
I476
aI1392
aI258
aI2143
aI1095
aI1388
asI404
(lp405
I725
aI1135
aI1959
aI2059
aI465
aI1352
asI405
(lp406
I738
aI699
aI811
aI153
aI2178
aI882
asI406
(lp407
I569
aI1443
aI1779
aI768
aI424
aI1921
asI407
(lp408
I68
aI343
aI277
aI84
aI1677
aI737
asI408
(lp409
I1943
aI1331
aI1255
aI362
aI595
aI1196
asI409
(lp410
I2171
aI696
aI1525
aI18
aI1754
aI1556
asI410
(lp411
I1751
aI863
aI2135
aI1373
aI1287
aI1899
asI411
(lp412
I1225
aI667
aI46
aI63
aI1553
aI28
asI412
(lp413
I683
aI1254
aI1463
aI1589
aI1093
aI921
asI413
(lp414
I892
aI1347
aI497
aI772
aI1103
aI1601
asI414
(lp415
I217
aI956
aI1930
aI534
aI28
aI978
asI415
(lp416
I1814
aI220
aI971
aI1733
aI321
aI1005
asI416
(lp417
I1407
aI1180
aI1071
aI2178
aI1566
aI2056
asI417
(lp418
I1926
aI1692
aI1000
aI1060
aI1834
aI1621
asI418
(lp419
I509
aI926
aI1421
aI1395
aI1912
aI1136
asI419
(lp420
I1238
aI1185
aI192
aI2181
aI497
aI254
asI420
(lp421
I2068
aI1257
aI439
aI840
aI970
aI1371
asI421
(lp422
I1962
aI1680
aI83
aI466
aI1309
aI1227
asI422
(lp423
I1974
aI1527
aI1693
aI1353
aI1918
aI593
asI423
(lp424
I1686
aI997
aI1623
aI2154
aI1582
aI289
asI424
(lp425
I1211
aI177
aI1554
aI2110
aI380
aI406
asI425
(lp426
I201
aI1351
aI1008
aI1750
aI1600
aI1511
asI426
(lp427
I1100
aI290
aI3
aI798
aI594
aI2182
asI427
(lp428
I1446
aI1767
aI267
aI25
aI1959
aI1488
asI428
(lp429
I1486
aI979
aI909
aI854
aI1575
aI679
asI429
(lp430
I1671
aI2164
aI618
aI325
aI95
aI515
asI430
(lp431
I45
aI73
aI835
aI182
aI1908
aI925
asI431
(lp432
I1125
aI200
aI692
aI737
aI1843
aI700
asI432
(lp433
I1352
aI165
aI1320
aI33
aI64
aI495
asI433
(lp434
I560
aI1114
aI745
aI807
aI1159
aI1683
asI434
(lp435
I1640
aI1689
aI1932
aI1321
aI271
aI1085
asI435
(lp436
I1239
aI2054
aI336
aI1186
aI753
aI1581
asI436
(lp437
I2126
aI1615
aI773
aI463
aI1617
aI1380
asI437
(lp438
I1702
aI2055
aI167
aI210
aI483
aI479
asI438
(lp439
I1384
aI1522
aI809
aI365
aI631
aI598
asI439
(lp440
I1274
aI341
aI707
aI420
aI1168
aI1193
asI440
(lp441
I1785
aI514
aI521
aI1700
aI389
aI2050
asI441
(lp442
I221
aI605
aI175
aI811
aI521
aI1187
asI442
(lp443
I2
aI1562
aI84
aI971
aI1701
aI1566
asI443
(lp444
I1286
aI1541
aI1997
aI2175
aI755
aI1807
asI444
(lp445
I256
aI946
aI446
aI663
aI248
aI1178
asI445
(lp446
I1718
aI1328
aI535
aI1779
aI1074
aI843
asI446
(lp447
I1481
aI1477
aI1384
aI444
aI1374
aI1696
asI447
(lp448
I2177
aI1849
aI463
aI2163
aI1785
aI1845
asI448
(lp449
I1690
aI159
aI1535
aI2099
aI1887
aI1538
asI449
(lp450
I1
aI17
aI1799
aI1906
aI870
aI1472
asI450
(lp451
I1106
aI584
aI1349
aI2108
aI1775
aI1943
asI451
(lp452
I2023
aI1353
aI530
aI1912
aI31
aI596
asI452
(lp453
I1716
aI537
aI2146
aI1747
aI642
aI971
asI453
(lp454
I283
aI1454
aI872
aI738
aI1061
aI1051
asI454
(lp455
I698
aI1175
aI1156
aI2156
aI470
aI500
asI455
(lp456
I871
aI1768
aI604
aI139
aI222
aI2149
asI456
(lp457
I1023
aI1637
aI495
aI1891
aI833
aI462
asI457
(lp458
I318
aI52
aI2133
aI1574
aI1717
aI353
asI458
(lp459
I258
aI113
aI638
aI1214
aI1411
aI1408
asI459
(lp460
I288
aI971
aI1009
aI1396
aI1046
aI2150
asI460
(lp461
I2181
aI222
aI1433
aI895
aI2049
aI803
asI461
(lp462
I1674
aI1484
aI712
aI315
aI1810
aI1597
asI462
(lp463
I961
aI1720
aI793
aI728
aI456
aI1240
asI463
(lp464
I1750
aI1502
aI436
aI447
aI1722
aI1448
asI464
(lp465
I233
aI186
aI1960
aI2165
aI232
aI2082
asI465
(lp466
I63
aI1508
aI1286
aI600
aI2121
aI404
asI466
(lp467
I1192
aI1751
aI421
aI605
aI255
aI1595
asI467
(lp468
I1628
aI861
aI182
aI138
aI145
aI1895
asI468
(lp469
I1019
aI1827
aI888
aI1945
aI1605
aI1091
asI469
(lp470
I1899
aI369
aI764
aI1246
aI1672
aI1832
asI470
(lp471
I107
aI1765
aI1082
aI369
aI1561
aI454
asI471
(lp472
I1087
aI188
aI801
aI1623
aI1571
aI2094
asI472
(lp473
I1424
aI1554
aI856
aI1894
aI1127
aI95
asI473
(lp474
I1632
aI101
aI1902
aI662
aI260
aI1910
asI474
(lp475
I2071
aI395
aI765
aI1674
aI1822
aI1638
asI475
(lp476
I1658
aI947
aI818
aI372
aI1078
aI2048
asI476
(lp477
I1744
aI403
aI1146
aI1248
aI187
aI154
asI477
(lp478
I730
aI2140
aI1919
aI1437
aI1855
aI577
asI478
(lp479
I337
aI1775
aI2120
aI735
aI1895
aI533
asI479
(lp480
I1323
aI1895
aI314
aI119
aI437
aI1025
asI480
(lp481
I216
aI1952
aI644
aI1371
aI651
aI191
asI481
(lp482
I1425
aI18
aI653
aI1213
aI922
aI982
asI482
(lp483
I142
aI1369
aI1436
aI2122
aI227
aI831
asI483
(lp484
I1301
aI1286
aI673
aI1922
aI855
aI437
asI484
(lp485
I913
aI1046
aI2097
aI1964
aI505
aI1703
asI485
(lp486
I1848
aI1206
aI1599
aI1207
aI1710
aI1860
asI486
(lp487
I304
aI1240
aI293
aI661
aI2131
aI1982
asI487
(lp488
I702
aI119
aI1925
aI1291
aI1321
aI1931
asI488
(lp489
I1390
aI1710
aI931
aI281
aI1820
aI827
asI489
(lp490
I364
aI1377
aI1518
aI106
aI80
aI1439
asI490
(lp491
I1682
aI1928
aI1344
aI1332
aI583
aI1549
asI491
(lp492
I1812
aI76
aI1685
aI727
aI766
aI875
asI492
(lp493
I1218
aI1762
aI1366
aI532
aI1119
aI287
asI493
(lp494
I212
aI2102
aI138
aI572
aI544
aI1343
asI494
(lp495
I1657
aI1933
aI76
aI625
aI1932
aI63
asI495
(lp496
I2051
aI327
aI1812
aI456
aI432
aI1191
asI496
(lp497
I341
aI2012
aI1904
aI777
aI317
aI1692
asI497
(lp498
I79
aI891
aI2012
aI413
aI136
aI419
asI498
(lp499
I848
aI729
aI1027
aI1375
aI837
aI1812
asI499
(lp500
I2170
aI2144
aI1099
aI1758
aI637
aI1689
asI500
(lp501
I1705
aI22
aI1699
aI810
aI454
aI1347
asI501
(lp502
I974
aI176
aI2020
aI1279
aI506
aI1106
asI502
(lp503
I1448
aI235
aI1691
aI1069
aI115
aI1951
asI503
(lp504
I1642
aI1450
aI111
aI1301
aI621
aI1295
asI504
(lp505
I399
aI1507
aI2113
aI878
aI1585
aI1470
asI505
(lp506
I1738
aI339
aI814
aI236
aI508
aI484
asI506
(lp507
I1197
aI2183
aI87
aI1768
aI1491
aI501
asI507
(lp508
I1934
aI2061
aI1429
aI1147
aI174
aI1269
asI508
(lp509
I1163
aI248
aI1330
aI1161
aI2138
aI505
asI509
(lp510
I1196
aI418
aI2143
aI1513
aI570
aI1412
asI510
(lp511
I946
aI995
aI594
aI1785
aI1151
aI1827
asI511
(lp512
I939
aI2174
aI753
aI1818
aI2086
aI1851
asI512
(lp513
I1977
aI783
aI1921
aI386
aI1477
aI1929
asI513
(lp514
I1264
aI910
aI2139
aI989
aI643
aI1508
asI514
(lp515
I440
aI742
aI636
aI226
aI1500
aI1682
asI515
(lp516
I150
aI97
aI1798
aI2040
aI429
aI1602
asI516
(lp517
I1280
aI550
aI1319
aI606
aI996
aI529
asI517
(lp518
I1502
aI652
aI1609
aI1775
aI1829
aI2025
asI518
(lp519
I630
aI2056
aI2093
aI1107
aI1949
aI1880
asI519
(lp520
I1475
aI912
aI1031
aI1637
aI1480
aI107
asI520
(lp521
I1932
aI183
aI719
aI1455
aI813
aI1018
asI521
(lp522
I2057
aI1552
aI614
aI440
aI671
aI441
asI522
(lp523
I2099
aI1672
aI630
aI1886
aI1206
aI1087
asI523
(lp524
I1456
aI245
aI1267
aI1344
aI1426
aI766
asI524
(lp525
I836
aI1464
aI778
aI2120
aI2045
aI115
asI525
(lp526
I1574
aI2057
aI2127
aI635
aI1160
aI886
asI526
(lp527
I690
aI574
aI973
aI1343
aI862
aI958
asI527
(lp528
I1592
aI1248
aI1096
aI988
aI822
aI211
asI528
(lp529
I1923
aI1157
aI1682
aI1904
aI1054
aI2160
asI529
(lp530
I1770
aI2080
aI136
aI1150
aI516
aI1719
asI530
(lp531
I1002
aI2170
aI1536
aI451
aI582
aI2020
asI531
(lp532
I1762
aI2079
aI73
aI1057
aI1928
aI1118
asI532
(lp533
I792
aI2157
aI492
aI1709
aI139
aI1606
asI533
(lp534
I1942
aI651
aI1307
aI1991
aI478
aI303
asI534
(lp535
I187
aI688
aI414
aI221
aI1623
aI2151
asI535
(lp536
I156
aI1101
aI2171
aI445
aI1845
aI1016
asI536
(lp537
I863
aI1708
aI196
aI380
aI1952
aI1859
asI537
(lp538
I452
aI247
aI1973
aI831
aI558
aI217
asI538
(lp539
I2045
aI875
aI702
aI813
aI1811
aI1210
asI539
(lp540
I1596
aI1169
aI72
aI1261
aI1073
aI2099
asI540
(lp541
I1796
aI1370
aI1992
aI990
aI1313
aI1117
asI541
(lp542
I1801
aI2156
aI1507
aI1624
aI155
aI397
asI542
(lp543
I665
aI209
aI371
aI1848
aI69
aI1127
asI543
(lp544
I163
aI2026
aI722
aI841
aI20
aI2053
asI544
(lp545
I1659
aI1899
aI688
aI705
aI1656
aI493
asI545
(lp546
I1838
aI2106
aI1345
aI631
aI1769
aI556
asI546
(lp547
I547
aI1228
aI50
aI1601
aI1568
aI351
asI547
(lp548
I726
aI546
aI2018
aI71
aI1240
aI588
asI548
(lp549
I999
aI318
aI994
aI589
aI24
aI1067
asI549
(lp550
I821
aI1311
aI1407
aI995
aI224
aI2166
asI550
(lp551
I516
aI1846
aI2071
aI1536
aI1650
aI1274
asI551
(lp552
I177
aI1867
aI1819
aI1713
aI1316
aI322
asI552
(lp553
I1630
aI1062
aI681
aI770
aI1419
aI2032
asI553
(lp554
I747
aI1081
aI686
aI1535
aI129
aI174
asI554
(lp555
I2116
aI1015
aI1302
aI1416
aI325
aI821
asI555
(lp556
I664
aI1690
aI785
aI864
aI841
aI1701
asI556
(lp557
I165
aI880
aI1123
aI323
aI545
aI1733
asI557
(lp558
I2065
aI954
aI1776
aI1702
aI1141
aI1753
asI558
(lp559
I1959
aI2042
aI825
aI1380
aI322
aI537
asI559
(lp560
I1025
aI2127
aI1381
aI1646
aI707
aI1903
asI560
(lp561
I140
aI433
aI1977
aI1239
aI568
aI97
asI561
(lp562
I1334
aI2146
aI49
aI1487
aI309
aI1752
asI562
(lp563
I1220
aI1698
aI1478
aI1083
aI282
aI645
asI563
(lp564
I275
aI227
aI2131
aI2172
aI336
aI949
asI564
(lp565
I1782
aI2015
aI633
aI143
aI1376
aI1528
asI565
(lp566
I1895
aI1519
aI1485
aI1548
aI304
aI2132
asI566
(lp567
I4
aI1655
aI1739
aI904
aI1392
aI704
asI567
(lp568
I866
aI860
aI2152
aI703
aI1451
aI1428
asI568
(lp569
I1911
aI1567
aI1887
aI710
aI856
aI560
asI569
(lp570
I49
aI406
aI1356
aI1850
aI1041
aI1496
asI570
(lp571
I356
aI1911
aI333
aI1534
aI1347
aI509
asI571
(lp572
I240
aI2131
aI609
aI969
aI2095
aI1950
asI572
(lp573
I986
aI1406
aI493
aI81
aI1016
aI1998
asI573
(lp574
I1966
aI1624
aI2080
aI344
aI1196
aI1162
asI574
(lp575
I526
aI791
aI1414
aI2068
aI209
aI1517
asI575
(lp576
I2115
aI143
aI1760
aI1003
aI1433
aI1994
asI576
(lp577
I380
aI2053
aI1257
aI2153
aI1494
aI1909
asI577
(lp578
I1330
aI2125
aI1424
aI979
aI477
aI132
asI578
(lp579
I727
aI123
aI1950
aI355
aI2134
aI719
asI579
(lp580
I1857
aI1881
aI1120
aI27
aI351
aI2118
asI580
(lp581
I2097
aI700
aI1675
aI1491
aI1660
aI252
asI581
(lp582
I326
aI627
aI671
aI2021
aI1518
aI77
asI582
(lp583
I1003
aI1975
aI1058
aI856
aI1427
aI530
asI583
(lp584
I620
aI2072
aI1813
aI2061
aI695
aI490
asI584
(lp585
I450
aI1043
aI82
aI1417
aI2124
aI2003
asI585
(lp586
I1223
aI1505
aI960
aI1354
aI1071
aI940
asI586
(lp587
I25
aI845
aI1859
aI872
aI1400
aI175
asI587
(lp588
I1080
aI1078
aI1564
aI974
aI1631
aI60
asI588
(lp589
I1699
aI134
aI1557
aI1185
aI547
aI1026
asI589
(lp590
I164
aI722
aI548
aI2063
aI109
aI1159
asI590
(lp591
I132
aI1041
aI161
aI717
aI66
aI1167
asI591
(lp592
I1731
aI1011
aI1249
aI1749
aI1190
aI1441
asI592
(lp593
I2087
aI1486
aI1765
aI87
aI2104
aI1421
asI593
(lp594
I1681
aI1513
aI2137
aI1921
aI422
aI1190
asI594
(lp595
I887
aI1796
aI1403
aI510
aI2032
aI426
asI595
(lp596
I1226
aI732
aI1615
aI883
aI810
aI408
asI596
(lp597
I1931
aI1028
aI251
aI1030
aI451
aI1090
asI597
(lp598
I71
aI1385
aI1584
aI1603
aI32
aI275
asI598
(lp599
I2176
aI1556
aI1185
aI1229
aI438
aI1806
asI599
(lp600
I1789
aI1290
aI47
aI1131
aI1705
aI640
asI600
(lp601
I1417
aI1709
aI465
aI1415
aI1509
aI1746
asI601
(lp602
I1619
aI901
aI123
aI956
aI835
aI818
asI602
(lp603
I1083
aI800
aI1895
aI114
aI2014
aI1584
asI603
(lp604
I2037
aI1523
aI1483
aI319
aI1806
aI801
asI604
(lp605
I2085
aI1524
aI991
aI455
aI1186
aI1587
asI605
(lp606
I441
aI1837
aI466
aI1664
aI2085
aI1205
asI606
(lp607
I1798
aI2016
aI516
aI251
aI1688
aI1392
asI607
(lp608
I159
aI1033
aI1347
aI1043
aI373
aI1271
asI608
(lp609
I314
aI2143
aI2161
aI846
aI2071
aI726
asI609
(lp610
I1428
aI2003
aI1334
aI571
aI1246
aI913
asI610
(lp611
I724
aI1075
aI55
aI1704
aI1863
aI922
asI611
(lp612
I651
aI1292
aI280
aI1815
aI1259
aI1342
asI612
(lp613
I1833
aI1159
aI1945
aI2002
aI2176
aI927
asI613
(lp614
I348
aI1318
aI1136
aI1669
aI295
aI2103
asI614
(lp615
I53
aI1488
aI1038
aI521
aI1466
aI926
asI615
(lp616
I622
aI368
aI1400
aI1089
aI639
aI659
asI616
(lp617
I2012
aI1171
aI768
aI818
aI1522
aI106
asI617
(lp618
I2007
aI1215
aI352
aI889
aI1210
aI1069
asI618
(lp619
I742
aI2067
aI677
aI429
aI1591
aI1835
asI619
(lp620
I1009
aI1734
aI1179
aI178
aI1277
aI51
asI620
(lp621
I396
aI583
aI1113
aI1936
aI1219
aI1156
asI621
(lp622
I1120
aI1974
aI864
aI2098
aI1532
aI503
asI622
(lp623
I2139
aI615
aI676
aI1658
aI770
aI1944
asI623
(lp624
I1059
aI2149
aI1133
aI262
aI2135
aI164
asI624
(lp625
I1162
aI144
aI641
aI1742
aI1382
aI943
asI625
(lp626
I1277
aI295
aI494
aI1878
aI1910
aI1108
asI626
(lp627
I1713
aI2065
aI387
aI1075
aI1126
aI986
asI627
(lp628
I581
aI1182
aI1316
aI1596
aI1134
aI2116
asI628
(lp629
I1995
aI1308
aI1516
aI1091
aI1378
aI1864
asI629
(lp630
I1963
aI268
aI761
aI2094
aI1042
aI192
asI630
(lp631
I1901
aI518
aI1335
aI522
aI1175
aI1748
asI631
(lp632
I384
aI1167
aI545
aI1146
aI246
aI438
asI632
(lp633
I1200
aI2136
aI92
aI1793
aI87
aI1887
asI633
(lp634
I1437
aI1650
aI320
aI564
aI1774
aI814
asI634
(lp635
I1650
aI1866
aI86
aI1388
aI697
aI300
asI635
(lp636
I1886
aI69
aI525
aI2105
aI2100
aI1991
asI636
(lp637
I1066
aI1363
aI1051
aI514
aI1281
aI1
asI637
(lp638
I58
aI1229
aI311
aI2003
aI2072
aI499
asI638
(lp639
I1556
aI267
aI96
aI458
aI1747
aI1666
asI639
(lp640
I1148
aI350
aI63
aI219
aI930
aI615
asI640
(lp641
I1150
aI1457
aI1377
aI1992
aI599
aI2143
asI641
(lp642
I11
aI1496
aI36
aI624
aI1614
aI1543
asI642
(lp643
I1941
aI1148
aI215
aI30
aI1212
aI452
asI643
(lp644
I103
aI1520
aI246
aI1096
aI1994
aI513
asI644
(lp645
I983
aI1275
aI1811
aI480
aI124
aI2175
asI645
(lp646
I1605
aI33
aI979
aI134
aI562
aI764
asI646
(lp647
I882
aI11
aI1567
aI163
aI191
aI1231
asI647
(lp648
I723
aI1533
aI1033
aI1514
aI2033
aI49
asI648
(lp649
I701
aI1633
aI67
aI1070
aI884
aI61
asI649
(lp650
I706
aI1724
aI2060
aI1409
aI1325
aI2165
asI650
(lp651
I1638
aI1057
aI1640
aI867
aI127
aI2155
asI651
(lp652
I533
aI611
aI743
aI1072
aI1941
aI480
asI652
(lp653
I517
aI1007
aI1961
aI725
aI1888
aI1652
asI653
(lp654
I1419
aI1408
aI2155
aI481
aI201
aI1216
asI654
(lp655
I342
aI1678
aI1824
aI233
aI973
aI2016
asI655
(lp656
I1453
aI210
aI1397
aI1466
aI1937
aI64
asI656
(lp657
I775
aI307
aI1723
aI2013
aI390
aI110
asI657
(lp658
I1462
aI162
aI402
aI1736
aI664
aI1892
asI658
(lp659
I54
aI1420
aI1784
aI77
aI21
aI1078
asI659
(lp660
I1324
aI1150
aI2051
aI170
aI615
aI151
asI660
(lp661
I938
aI825
aI790
aI239
aI2157
aI883
asI661
(lp662
I895
aI1410
aI486
aI1827
aI1397
aI369
asI662
(lp663
I1810
aI2046
aI473
aI943
aI824
aI980
asI663
(lp664
I978
aI853
aI444
aI1457
aI305
aI382
asI664
(lp665
I1215
aI555
aI206
aI1803
aI2092
aI657
asI665
(lp666
I989
aI542
aI1828
aI1685
aI1673
aI1570
asI666
(lp667
I1422
aI1170
aI1677
aI1009
aI1234
aI1122
asI667
(lp668
I411
aI1896
aI883
aI2038
aI345
aI2163
asI668
(lp669
I1624
aI1560
aI1419
aI2119
aI1968
aI337
asI669
(lp670
I924
aI108
aI1639
aI1650
aI1929
aI2075
asI670
(lp671
I274
aI1646
aI684
aI697
aI1069
aI1030
asI671
(lp672
I720
aI1594
aI737
aI581
aI1939
aI521
asI672
(lp673
I1021
aI1573
aI1297
aI295
aI290
aI1223
asI673
(lp674
I351
aI313
aI373
aI483
aI2043
aI1289
asI674
(lp675
I713
aI380
aI22
aI1154
aI1460
aI1918
asI675
(lp676
I1604
aI1750
aI2019
aI2075
aI1028
aI226
asI676
(lp677
I1615
aI1888
aI757
aI622
aI1320
aI1417
asI677
(lp678
I252
aI1445
aI1143
aI618
aI192
aI1339
asI678
(lp679
I1305
aI1799
aI1709
aI1029
aI1009
aI881
asI679
(lp680
I1775
aI849
aI990
aI24
aI428
aI1797
asI680
(lp681
I846
aI1971
aI80
aI1477
aI799
aI1838
asI681
(lp682
I1892
aI747
aI1823
aI552
aI1430
aI1131
asI682
(lp683
I1052
aI262
aI1545
aI1819
aI1163
aI27
asI683
(lp684
I1224
aI412
aI821
aI1427
aI692
aI864
asI684
(lp685
I1041
aI872
aI1223
aI670
aI912
aI92
asI685
(lp686
I799
aI802
aI1409
aI1572
aI1642
aI1817
asI686
(lp687
I1452
aI56
aI1001
aI553
aI2102
aI146
asI687
(lp688
I809
aI770
aI124
aI1137
aI349
aI865
asI688
(lp689
I534
aI814
aI2168
aI544
aI2001
aI116
asI689
(lp690
I251
aI969
aI1300
aI1755
aI910
aI1757
asI690
(lp691
I876
aI526
aI826
aI833
aI330
aI1075
asI691
(lp692
I1871
aI28
aI1076
aI1314
aI950
aI1855
asI692
(lp693
I1965
aI1063
aI955
aI431
aI1008
aI683
asI693
(lp694
I1441
aI2095
aI739
aI1227
aI1502
aI869
asI694
(lp695
I990
aI1405
aI1513
aI1511
aI1824
aI2170
asI695
(lp696
I1626
aI279
aI1787
aI2031
aI806
aI583
asI696
(lp697
I409
aI2129
aI2089
aI217
aI1230
aI1267
asI697
(lp698
I346
aI2153
aI670
aI1259
aI1149
aI634
asI698
(lp699
I1406
aI454
aI996
aI954
aI1015
aI1192
asI699
(lp700
I405
aI1162
aI1358
aI1798
aI1245
aI2024
asI700
(lp701
I580
aI1332
aI1856
aI869
aI431
aI916
asI701
(lp702
I350
aI648
aI928
aI259
aI1919
aI1049
asI702
(lp703
I1497
aI487
aI139
aI538
aI194
aI309
asI703
(lp704
I2144
aI2019
aI567
aI1831
aI1148
aI117
asI704
(lp705
I1830
aI923
aI1431
aI55
aI566
aI970
asI705
(lp706
I1504
aI2051
aI544
aI1221
aI130
aI1726
asI706
(lp707
I393
aI649
aI808
aI392
aI882
aI1820
asI707
(lp708
I1433
aI1882
aI1986
aI439
aI1289
aI559
asI708
(lp709
I1505
aI801
aI1645
aI2100
aI871
aI131
asI709
(lp710
I1568
aI1044
aI1734
aI2047
aI1417
aI1163
asI710
(lp711
I1372
aI2168
aI568
aI157
aI314
aI1314
asI711
(lp712
I2029
aI968
aI1100
aI1130
aI1488
aI1686
asI712
(lp713
I1546
aI44
aI725
aI461
aI1120
aI1521
asI713
(lp714
I1067
aI674
aI949
aI1116
aI2140
aI784
asI714
(lp715
I1732
aI1427
aI1391
aI1094
aI402
aI1397
asI715
(lp716
I1708
aI883
aI394
aI1145
aI1573
aI2152
asI716
(lp717
I1860
aI1453
aI2100
aI289
aI149
aI1756
asI717
(lp718
I1818
aI1349
aI590
aI1663
aI1097
aI1591
asI718
(lp719
I1969
aI873
aI1442
aI1179
aI1486
aI1743
asI719
(lp720
I149
aI394
aI782
aI520
aI578
aI348
asI720
(lp721
I52
aI671
aI1750
aI338
aI1344
aI1811
asI721
(lp722
I1095
aI886
aI304
aI1274
aI259
aI2122
asI722
(lp723
I589
aI1310
aI89
aI543
aI237
aI1220
asI723
(lp724
I1913
aI647
aI1148
aI819
aI1236
aI1834
asI724
(lp725
I806
aI610
aI305
aI928
aI114
aI1718
asI725
(lp726
I2066
aI404
aI652
aI712
aI1851
aI2001
asI726
(lp727
I1169
aI547
aI1318
aI1701
aI608
aI1927
asI727
(lp728
I2033
aI578
aI491
aI1705
aI1741
aI1262
asI728
(lp729
I1132
aI1561
aI462
aI2070
aI1211
aI343
asI729
(lp730
I498
aI1368
aI1101
aI1554
aI1632
aI2027
asI730
(lp731
I2010
aI477
aI1188
aI1393
aI1772
aI2088
asI731
(lp732
I764
aI816
aI1070
aI1
aI377
aI1318
asI732
(lp733
I595
aI30
aI62
aI253
aI77
aI276
asI733
(lp734
I1680
aI774
aI891
aI1608
aI1547
aI59
asI734
(lp735
I1611
aI1118
aI364
aI357
aI1358
aI834
asI735
(lp736
I745
aI1937
aI478
aI996
aI1276
aI1283
asI736
(lp737
I152
aI1907
aI291
aI1023
aI84
aI370
asI737
(lp738
I1411
aI2160
aI431
aI671
aI407
aI1367
asI738
(lp739
I891
aI405
aI453
aI925
aI56
aI1104
asI739
(lp740
I198
aI1506
aI1466
aI693
aI82
aI1098
asI740
(lp741
I1494
aI43
aI758
aI1459
aI1515
aI207
asI741
(lp742
I1099
aI2155
aI1448
aI1933
aI817
aI1565
asI742
(lp743
I514
aI618
aI1652
aI1232
aI1029
aI380
asI743
(lp744
I1580
aI1683
aI993
aI651
aI760
aI1550
asI744
(lp745
I1189
aI338
aI1025
aI2173
aI1640
aI195
asI745
(lp746
I26
aI735
aI1171
aI433
aI1871
aI846
asI746
(lp747
I2175
aI1788
aI366
aI2022
aI1116
aI1893
asI747
(lp748
I681
aI553
aI341
aI382
aI989
aI1006
asI748
(lp749
I43
aI913
aI1588
aI1397
aI2090
aI1209
asI749
(lp750
I1968
aI10
aI834
aI1264
aI2133
aI1930
asI750
(lp751
I1184
aI1988
aI1957
aI1583
aI1901
aI29
asI751
(lp752
I1894
aI2169
aI1912
aI1338
aI1782
aI1257
asI752
(lp753
I1217
aI347
aI1043
aI2030
aI1122
aI1525
asI753
(lp754
I2030
aI2105
aI981
aI511
aI2061
aI435
asI754
(lp755
I352
aI1013
aI1626
aI91
aI1940
aI844
asI755
(lp756
I1414
aI256
aI1277
aI1527
aI175
aI443
asI756
(lp757
I1717
aI326
aI259
aI1479
aI783
aI786
asI757
(lp758
I1314
aI943
aI1884
aI676
aI1835
aI768
asI758
(lp759
I320
aI105
aI2173
aI740
aI0
aI1313
asI759
(lp760
I1914
aI2050
aI1480
aI267
aI1493
aI1425
asI760
(lp761
I1295
aI1304
aI1359
aI918
aI1856
aI743
asI761
(lp762
I340
aI1401
aI1944
aI629
aI1014
aI1344
asI762
(lp763
I114
aI1253
aI1722
aI9
aI1536
aI1450
asI763
(lp764
I2084
aI2033
aI257
aI168
aI864
aI1816
asI764
(lp765
I65
aI731
aI1955
aI469
aI645
aI830
asI765
(lp766
I120
aI1759
aI1888
aI474
aI51
aI1984
asI766
(lp767
I1043
aI1880
aI38
aI381
aI523
aI491
asI767
(lp768
I27
aI940
aI1984
aI1290
aI1023
aI1033
asI768
(lp769
I1736
aI1469
aI406
aI616
aI757
aI2138
asI769
(lp770
I1777
aI1845
aI169
aI1446
aI198
aI1656
asI770
(lp771
I687
aI1959
aI552
aI2010
aI7
aI622
asI771
(lp772
I963
aI388
aI1024
aI1656
aI1514
aI1709
asI772
(lp773
I1655
aI837
aI413
aI941
aI372
aI1651
asI773
(lp774
I1326
aI1403
aI1539
aI436
aI233
aI335
asI774
(lp775
I733
aI1491
aI294
aI1202
aI919
aI863
asI775
(lp776
I309
aI656
aI1289
aI1209
aI1269
aI153
asI776
(lp777
I1930
aI1303
aI1239
aI1341
aI269
aI2147
asI777
(lp778
I1472
aI296
aI496
aI1711
aI1800
aI401
asI778
(lp779
I1232
aI224
aI895
aI524
aI840
aI896
asI779
(lp780
I1498
aI1608
aI1398
aI1971
aI1861
aI140
asI780
(lp781
I1444
aI1270
aI1596
aI1531
aI1610
aI892
asI781
(lp782
I964
aI2000
aI281
aI1512
aI2062
aI1793
asI782
(lp783
I1432
aI1139
aI1168
aI719
aI386
aI45
asI783
(lp784
I512
aI1783
aI1890
aI909
aI298
aI756
asI784
(lp785
I2094
aI2068
aI1130
aI1059
aI713
aI2006
asI785
(lp786
I1990
aI1953
aI1379
aI555
aI1989
aI259
asI786
(lp787
I1110
aI370
aI1142
aI1211
aI756
aI1823
asI787
(lp788
I1843
aI367
aI804
aI1781
aI1487
aI791
asI788
(lp789
I1257
aI1970
aI1703
aI2065
aI1178
aI2162
asI789
(lp790
I1915
aI1107
aI254
aI1199
aI2000
aI794
asI790
(lp791
I1625
aI1798
aI1825
aI660
aI1386
aI1829
asI791
(lp792
I574
aI1345
aI1222
aI1667
aI787
aI1341
asI792
(lp793
I1916
aI532
aI2156
aI176
aI2129
aI1649
asI793
(lp794
I273
aI1566
aI1259
aI462
aI1816
aI1995
asI794
(lp795
I900
aI890
aI967
aI1355
aI789
aI973
asI795
(lp796
I316
aI62
aI2134
aI1241
aI1002
aI889
asI796
(lp797
I157
aI1636
aI54
aI1695
aI1625
aI1579
asI797
(lp798
I377
aI987
aI1248
aI1042
aI2169
aI1679
asI798
(lp799
I2021
aI1372
aI426
aI949
aI9
aI1449
asI799
(lp800
I2049
aI685
aI1672
aI1528
aI1179
aI680
asI800
(lp801
I602
aI1814
aI1145
aI1440
aI234
aI129
asI801
(lp802
I708
aI1763
aI1577
aI471
aI603
aI1957
asI802
(lp803
I685
aI1978
aI324
aI343
aI2163
aI1454
asI803
(lp804
I1536
aI1855
aI110
aI1522
aI460
aI1375
asI804
(lp805
I1193
aI1116
aI1612
aI787
aI1795
aI1787
asI805
(lp806
I1392
aI1176
aI1291
aI814
aI1387
aI1997
asI806
(lp807
I1174
aI724
aI1311
aI1873
aI880
aI695
asI807
(lp808
I1309
aI124
aI433
aI1222
aI874
aI372
asI808
(lp809
I2041
aI1448
aI1738
aI706
aI170
aI1803
asI809
(lp810
I854
aI687
aI1974
aI438
aI1815
aI1915
asI810
(lp811
I108
aI1227
aI500
aI247
aI1439
aI595
asI811
(lp812
I1195
aI1278
aI441
aI405
aI1153
aI1631
asI812
(lp813
I336
aI2179
aI937
aI206
aI2144
aI2113
asI813
(lp814
I995
aI1029
aI538
aI69
aI839
aI520
asI814
(lp815
I688
aI895
aI805
aI505
aI633
aI69
asI815
(lp816
I1675
aI1764
aI131
aI1151
aI1283
aI1320
asI816
(lp817
I731
aI2040
aI34
aI1973
aI1921
aI339
asI817
(lp818
I998
aI266
aI347
aI162
aI200
aI741
asI818
(lp819
I1244
aI190
aI616
aI475
aI601
aI1292
asI819
(lp820
I1395
aI371
aI723
aI1480
aI162
aI840
asI820
(lp821
I287
aI1447
aI2109
aI1284
aI2083
aI2089
asI821
(lp822
I1230
aI549
aI395
aI683
aI554
aI942
asI822
(lp823
I355
aI900
aI1341
aI2101
aI2009
aI527
asI823
(lp824
I127
aI1773
aI980
aI1811
aI1253
aI364
asI824
(lp825
I1850
aI103
aI1127
aI1103
aI1492
aI662
asI825
(lp826
I660
aI1236
aI1164
aI558
aI113
aI1593
asI826
(lp827
I1831
aI1265
aI899
aI690
aI1973
aI1861
asI827
(lp828
I2129
aI214
aI337
aI1263
aI488
aI1985
asI828
(lp829
I1882
aI1791
aI1534
aI347
aI847
aI324
asI829
(lp830
I174
aI152
aI1852
aI241
aI2077
aI2090
asI830
(lp831
I2062
aI1039
aI389
aI1102
aI764
aI1875
asI831
(lp832
I190
aI1841
aI537
aI308
aI482
aI1476
asI832
(lp833
I205
aI50
aI1135
aI394
aI1414
aI1043
asI833
(lp834
I2156
aI1478
aI690
aI1233
aI1284
aI456
asI834
(lp835
I1316
aI1082
aI268
aI749
aI734
aI1617
asI835
(lp836
I224
aI988
aI1471
aI430
aI1670
aI601
asI836
(lp837
I1949
aI524
aI264
aI1197
aI257
aI1378
asI837
(lp838
I772
aI393
aI2074
aI1423
aI1453
aI498
asI838
(lp839
I1487
aI2010
aI1515
aI1421
aI2117
aI1882
asI839
(lp840
I1020
aI1647
aI902
aI1621
aI941
aI813
asI840
(lp841
I1725
aI0
aI420
aI183
aI819
aI778
asI841
(lp842
I1013
aI1212
aI543
aI862
aI1263
aI555
asI842
(lp843
I1853
aI265
aI1260
aI1626
aI1499
aI2161
asI843
(lp844
I1423
aI280
aI997
aI964
aI445
aI1410
asI844
(lp845
I1938
aI239
aI384
aI1016
aI754
aI1677
asI845
(lp846
I586
aI1943
aI1726
aI945
aI1401
aI124
asI846
(lp847
I1804
aI680
aI608
aI1979
aI745
aI1424
asI847
(lp848
I1028
aI937
aI1861
aI1074
aI98
aI828
asI848
(lp849
I67
aI498
aI303
aI1428
aI1393
aI1146
asI849
(lp850
I679
aI381
aI1292
aI321
aI1684
aI1669
asI850
(lp851
I1733
aI1745
aI1537
aI1319
aI1527
aI2070
asI851
(lp852
I295
aI1886
aI187
aI1088
aI982
aI946
asI852
(lp853
I357
aI98
aI1908
aI2174
aI1715
aI894
asI853
(lp854
I663
aI185
aI1512
aI1110
aI1635
aI1123
asI854
(lp855
I76
aI809
aI428
aI2060
aI1802
aI269
asI855
(lp856
I2130
aI1102
aI398
aI44
aI1051
aI483
asI856
(lp857
I1313
aI1661
aI582
aI472
aI899
aI568
asI857
(lp858
I1055
aI2086
aI2101
aI1386
aI1304
aI945
asI858
(lp859
I115
aI1542
aI2119
aI1203
aI939
aI984
asI859
(lp860
I1840
aI905
aI2059
aI2152
aI1927
aI1180
asI860
(lp861
I567
aI2081
aI1715
aI327
aI181
aI1331
asI861
(lp862
I467
aI2111
aI329
aI384
aI1092
aI2100
asI862
(lp863
I1516
aI1984
aI841
aI1352
aI38
aI526
asI863
(lp864
I410
aI536
aI2086
aI73
aI774
aI1050
asI864
(lp865
I1908
aI1284
aI555
aI621
aI683
aI763
asI865
(lp866
I196
aI938
aI884
aI1590
aI687
aI1886
asI866
(lp867
I1726
aI567
aI1707
aI1657
aI1658
aI286
asI867
(lp868
I1582
aI95
aI650
aI1494
aI1946
aI1954
asI868
(lp869
I1973
aI86
aI875
aI1987
aI253
aI1109
asI869
(lp870
I1378
aI1754
aI700
aI1316
aI693
aI1081
asI870
(lp871
I375
aI1572
aI318
aI967
aI1729
aI449
asI871
(lp872
I966
aI455
aI1657
aI1166
aI247
aI708
asI872
(lp873
I684
aI1653
aI586
aI453
aI1630
aI1456
asI873
(lp874
I718
aI2132
aI79
aI902
aI2109
aI1808
asI874
(lp875
I369
aI1422
aI1745
aI1708
aI1250
aI807
asI875
(lp876
I538
aI1120
aI1129
aI868
aI491
aI2114
asI876
(lp877
I202
aI690
aI989
aI1735
aI59
aI1642
asI877
(lp878
I1104
aI236
aI1928
aI1817
aI1983
aI2119
asI878
(lp879
I134
aI1826
aI504
aI1545
aI1342
aI163
asI879
(lp880
I360
aI301
aI1221
aI186
aI4
aI1168
asI880
(lp881
I556
aI1455
aI269
aI243
aI1951
aI806
asI881
(lp882
I1374
aI1685
aI1692
aI1604
aI678
aI242
asI882
(lp883
I1404
aI646
aI1929
aI1762
aI405
aI706
asI883
(lp884
I715
aI180
aI595
aI667
aI660
aI128
asI884
(lp885
I1508
aI258
aI1193
aI865
aI126
aI648
asI885
(lp886
I1678
aI1166
aI59
aI1661
aI1988
aI1987
asI886
(lp887
I721
aI2182
aI1671
aI2176
aI525
aI953
asI887
(lp888
I1679
aI594
aI1065
aI2035
aI367
aI2154
asI888
(lp889
I6
aI2031
aI1980
aI468
aI1996
aI85
asI889
(lp890
I1096
aI1662
aI617
aI1634
aI795
aI1596
asI890
(lp891
I794
aI1753
aI90
aI1258
aI1131
aI290
asI891
(lp892
I497
aI738
aI1089
aI733
aI1875
aI1532
asI892
(lp893
I301
aI413
aI935
aI1796
aI780
aI349
asI893
(lp894
I1493
aI1098
aI1487
aI1794
aI1292
aI137
asI894
(lp895
I2055
aI1252
aI1491
aI2116
aI852
aI1235
asI895
(lp896
I814
aI661
aI460
aI778
aI2128
aI1837
asI896
(lp897
I32
aI1621
aI1284
aI1609
aI778
aI1992
asI897
(lp898
I992
aI1103
aI998
aI213
aI1101
aI1545
asI898
(lp899
I23
aI1460
aI1879
aI1914
aI1473
aI58
asI899
(lp900
I2153
aI1509
aI109
aI826
aI1991
aI856
asI900
(lp901
I822
aI794
aI1713
aI1270
aI207
aI302
asI901
(lp902
I601
aI1026
aI1532
aI370
aI2065
aI1906
asI902
(lp903
I1266
aI2177
aI873
aI839
aI1538
aI1537
asI903
(lp904
I281
aI1777
aI1266
aI1489
aI2047
aI398
asI904
(lp905
I368
aI67
aI566
aI2042
aI1864
aI1613
asI905
(lp906
I859
aI1691
aI2054
aI1104
aI1115
aI46
asI906
(lp907
I1633
aI2027
aI1354
aI1149
aI388
aI1134
asI907
(lp908
I1398
aI1461
aI113
aI275
aI146
aI1729
asI908
(lp909
I1471
aI1319
aI262
aI2114
aI1907
aI1920
asI909
(lp910
I1552
aI1591
aI783
aI428
aI2005
aI1418
asI910
(lp911
I513
aI1654
aI1333
aI2097
aI1789
aI689
asI911
(lp912
I2075
aI1441
aI1646
aI0
aI339
aI1608
asI912
(lp913
I519
aI1893
aI1552
aI261
aI1923
aI684
asI913
(lp914
I748
aI484
aI1948
aI1855
aI609
aI79
asI914
(lp915
I1053
aI2114
aI1373
aI2043
aI1261
aI2117
asI915
(lp916
I367
aI1188
aI2130
aI388
aI1217
aI1881
asI916
(lp917
I1743
aI81
aI1087
aI1473
aI700
aI2084
asI917
(lp918
I1852
aI1879
aI963
aI1890
aI2146
aI257
asI918
(lp919
I1540
aI1161
aI760
aI268
aI278
aI1070
asI919
(lp920
I1329
aI1083
aI1028
aI1063
aI990
aI774
asI920
(lp921
I2158
aI116
aI1933
aI1323
aI1530
aI1665
asI921
(lp922
I1783
aI1596
aI1614
aI1348
aI412
aI2181
asI922
(lp923
I2048
aI1529
aI349
aI208
aI610
aI481
asI923
(lp924
I704
aI219
aI1331
aI1474
aI1719
aI1598
asI924
(lp925
I1091
aI669
aI1425
aI1859
aI1716
aI81
asI925
(lp926
I1046
aI1360
aI738
aI1792
aI430
aI1259
asI926
(lp927
I418
aI112
aI1560
aI1018
aI614
aI2051
asI927
(lp928
I1403
aI945
aI1189
aI147
aI612
aI1577
asI928
(lp929
I1793
aI963
aI724
aI701
aI1938
aI1843
asI929
(lp930
I977
aI1964
aI1048
aI1064
aI1188
aI2164
asI930
(lp931
I1466
aI1847
aI189
aI367
aI1920
aI639
asI931
(lp932
I1294
aI397
aI1412
aI488
aI1583
aI52
asI932
(lp933
I1805
aI1785
aI1170
aI1946
aI2003
aI262
asI933
(lp934
I1426
aI1564
aI2022
aI955
aI1866
aI1438
asI934
(lp935
I1072
aI1940
aI1405
aI293
aI1931
aI1184
asI935
(lp936
I2034
aI1806
aI2125
aI892
aI14
aI1961
asI936
(lp937
I1436
aI2048
aI199
aI1139
aI276
aI344
asI937
(lp938
I847
aI234
aI70
aI812
aI169
aI1704
asI938
(lp939
I865
aI660
aI1078
aI1957
aI1012
aI304
asI939
(lp940
I1141
aI511
aI1213
aI1400
aI1911
aI858
asI940
(lp941
I767
aI1190
aI1326
aI1251
aI585
aI1724
asI941
(lp942
I951
aI1155
aI772
aI1525
aI2058
aI839
asI942
(lp943
I1897
aI1736
aI1315
aI1559
aI821
aI25
asI943
(lp944
I757
aI1995
aI662
aI299
aI624
aI1857
asI944
(lp945
I1259
aI1417
aI1793
aI1142
aI1827
aI1101
asI945
(lp946
I927
aI1956
aI845
aI1376
aI857
aI1888
asI946
(lp947
I444
aI510
aI8
aI1255
aI851
aI967
asI947
(lp948
I475
aI1613
aI2077
aI1599
aI998
aI1974
asI948
(lp949
I2113
aI1219
aI1748
aI1225
aI116
aI1981
asI949
(lp950
I1360
aI1415
aI798
aI713
aI563
aI354
asI950
(lp951
I2135
aI2036
aI1081
aI72
aI972
aI691
asI951
(lp952
I1771
aI941
aI1150
aI1028
aI2022
aI2134
asI952
(lp953
I2178
aI1521
aI1637
aI1767
aI1516
aI1841
asI953
(lp954
I1829
aI1137
aI91
aI1584
aI886
aI1661
asI954
(lp955
I557
aI357
aI698
aI1931
aI1441
aI1222
asI955
(lp956
I1601
aI1235
aI933
aI692
aI1297
aI1482
asI956
(lp957
I414
aI1338
aI601
aI329
aI1459
aI1086
asI957
(lp958
I1149
aI1022
aI1845
aI1356
aI2151
aI1126
asI958
(lp959
I2114
aI1557
aI1482
aI2091
aI526
aI2
asI959
(lp960
I1607
aI1184
aI1456
aI342
aI215
aI1628
asI960
(lp961
I1332
aI1035
aI1947
aI585
aI382
aI1499
asI961
(lp962
I2036
aI462
aI1281
aI38
aI1850
aI1708
asI962
(lp963
I15
aI1321
aI1903
aI272
aI1448
aI1801
asI963
(lp964
I928
aI771
aI1572
aI917
aI2137
aI1502
asI964
(lp965
I1950
aI781
aI843
aI1943
aI2141
aI2139
asI965
(lp966
I239
aI1172
aI388
aI255
aI1869
aI1497
asI966
(lp967
I2180
aI871
aI1423
aI1754
aI1472
aI169
asI967
(lp968
I1285
aI148
aI870
aI794
aI946
aI1058
asI968
(lp969
I711
aI1982
aI233
aI274
aI344
aI2069
asI969
(lp970
I689
aI169
aI571
aI57
aI1794
aI1844
asI970
(lp971
I1585
aI1822
aI1153
aI1607
aI704
aI420
asI971
(lp972
I459
aI2021
aI442
aI415
aI452
aI1204
asI972
(lp973
I223
aI138
aI2174
aI74
aI2025
aI950
asI973
(lp974
I42
aI351
aI2063
aI526
aI794
aI654
asI974
(lp975
I1845
aI501
aI587
aI1843
aI302
aI1716
asI975
(lp976
I401
aI1259
aI2126
aI324
aI1235
aI1767
asI976
(lp977
I1268
aI320
aI1598
aI1502
aI2067
aI1522
asI977
(lp978
I1045
aI929
aI1870
aI978
aI1455
aI1627
asI978
(lp979
I1234
aI663
aI977
aI1454
aI414
aI979
asI979
(lp980
I428
aI390
aI577
aI645
aI978
aI1728
asI980
(lp981
I296
aI1142
aI1768
aI823
aI662
aI1671
asI981
(lp982
I1836
aI1264
aI1216
aI753
aI1249
aI379
asI982
(lp983
I146
aI1872
aI1332
aI317
aI481
aI851
asI983
(lp984
I1684
aI644
aI299
aI291
aI1756
aI2153
asI984
(lp985
I1250
aI1805
aI1865
aI1266
aI858
aI256
asI985
(lp986
I169
aI1197
aI177
aI133
aI2036
aI1935
asI986
(lp987
I1183
aI572
aI300
aI180
aI626
aI54
asI987
(lp988
I797
aI85
aI2045
aI1171
aI1118
aI1722
asI988
(lp989
I835
aI1735
aI527
aI240
aI1001
aI399
asI989
(lp990
I1088
aI665
aI513
aI876
aI2035
aI747
asI990
(lp991
I1188
aI694
aI540
aI679
aI1070
aI919
asI991
(lp992
I1064
aI1920
aI2104
aI604
aI1659
aI1302
asI992
(lp993
I1221
aI897
aI1968
aI1687
aI1619
aI1011
asI993
(lp994
I391
aI1255
aI1773
aI743
aI1668
aI1420
asI994
(lp995
I229
aI260
aI1546
aI548
aI1525
aI1471
asI995
(lp996
I510
aI813
aI549
aI1485
aI1664
aI212
asI996
(lp997
I1420
aI1587
aI735
aI698
aI2018
aI516
asI997
(lp998
I423
aI32
aI1583
aI843
aI157
aI8
asI998
(lp999
I385
aI817
aI1225
aI897
aI231
aI947
asI999
(lp1000
I2070
aI548
aI1173
aI1098
aI348
aI291
asI1000
(lp1001
I1130
aI1894
aI1594
aI417
aI17
aI198
asI1001
(lp1002
I1410
aI1009
aI149
aI686
aI324
aI988
asI1002
(lp1003
I388
aI530
aI1007
aI1905
aI1986
aI795
asI1003
(lp1004
I2172
aI582
aI575
aI1045
aI1260
aI89
asI1004
(lp1005
I75
aI1262
aI1751
aI373
aI1167
aI1272
asI1005
(lp1006
I1253
aI2001
aI2044
aI1835
aI415
aI1175
asI1006
(lp1007
I1906
aI1468
aI1132
aI1425
aI747
aI1833
asI1007
(lp1008
I652
aI171
aI396
aI1002
aI105
aI1327
asI1008
(lp1009
I1768
aI1875
aI1395
aI425
aI196
aI692
asI1009
(lp1010
I1001
aI619
aI666
aI459
aI140
aI678
asI1010
(lp1011
I1586
aI1435
aI234
aI1783
aI143
aI2035
asI1011
(lp1012
I591
aI1946
aI1969
aI368
aI992
aI1487
asI1012
(lp1013
I1402
aI1852
aI1262
aI398
aI1961
aI938
asI1013
(lp1014
I754
aI841
aI224
aI53
aI1894
aI394
asI1014
(lp1015
I1826
aI1413
aI239
aI1177
aI1174
aI761
asI1015
(lp1016
I554
aI2161
aI1597
aI1627
aI1724
aI698
asI1016
(lp1017
I208
aI1801
aI844
aI1846
aI535
aI572
asI1017
(lp1018
I215
aI1667
aI1688
aI1858
aI1369
aI1279
asI1018
(lp1019
I38
aI384
aI926
aI1399
aI520
aI1554
asI1019
(lp1020
I2001
aI468
aI1579
aI1313
aI1581
aI1967
asI1020
(lp1021
I57
aI839
aI1942
aI1699
aI184
aI1466
asI1021
(lp1022
I2086
aI672
aI2005
aI1387
aI1267
aI1350
asI1022
(lp1023
I957
aI2109
aI1374
aI1377
aI1742
aI1572
asI1023
(lp1024
I106
aI456
aI736
aI1678
aI332
aI767
asI1024
(lp1025
I1109
aI2172
aI376
aI771
aI1917
aI1358
asI1025
(lp1026
I2103
aI559
aI1706
aI744
aI479
aI1637
asI1026
(lp1027
I901
aI1611
aI1218
aI1692
aI588
aI1770
asI1027
(lp1028
I184
aI1208
aI2065
aI498
aI239
aI1939
asI1028
(lp1029
I596
aI847
aI951
aI919
aI334
aI675
asI1029
(lp1030
I813
aI1642
aI678
aI2107
aI1370
aI742
asI1030
(lp1031
I7
aI277
aI596
aI185
aI670
aI1174
asI1031
(lp1032
I339
aI237
aI30
aI519
aI391
aI235
asI1032
(lp1033
I2047
aI1149
aI2178
aI1745
aI1468
aI1135
asI1033
(lp1034
I607
aI1355
aI361
aI647
aI767
aI2018
asI1034
(lp1035
I204
aI325
aI2181
aI1155
aI1777
aI2015
asI1035
(lp1036
I960
aI2037
aI1705
aI2130
aI1878
aI1891
asI1036
(lp1037
I1062
aI1504
aI1196
aI1718
aI197
aI336
asI1037
(lp1038
I303
aI84
aI2037
aI383
aI2183
aI308
asI1038
(lp1039
I1834
aI1795
aI1965
aI614
aI1403
aI2129
asI1039
(lp1040
I830
aI150
aI1240
aI1788
aI203
aI1461
asI1040
(lp1041
I1258
aI213
aI1743
aI1937
aI1161
aI18
asI1041
(lp1042
I590
aI684
aI29
aI326
aI1773
aI569
asI1042
(lp1043
I1795
aI1097
aI797
aI1049
aI1513
aI629
asI1043
(lp1044
I584
aI766
aI607
aI752
aI832
aI316
asI1044
(lp1045
I709
aI386
aI2141
aI214
aI1798
aI365
asI1045
(lp1046
I1781
aI977
aI1003
aI224
aI1974
aI43
asI1046
(lp1047
I484
aI925
aI12
aI1761
aI1542
aI459
asI1047
(lp1048
I122
aI137
aI1978
aI43
aI1201
aI187
asI1048
(lp1049
I1351
aI1829
aI179
aI929
aI1452
aI76
asI1049
(lp1050
I1533
aI31
aI1042
aI1683
aI701
aI1660
asI1050
(lp1051
I168
aI149
aI1648
aI2062
aI863
aI2159
asI1051
(lp1052
I1695
aI1770
aI2129
aI636
aI453
aI855
asI1052
(lp1053
I1115
aI682
aI1620
aI1062
aI89
aI1264
asI1053
(lp1054
I2161
aI914
aI202
aI1078
aI1955
aI56
asI1054
(lp1055
I2074
aI61
aI221
aI297
aI384
aI528
asI1055
(lp1056
I1595
aI857
aI222
aI2136
aI1146
aI14
asI1056
(lp1057
I2157
aI1089
aI154
aI2052
aI1786
aI347
asI1057
(lp1058
I650
aI174
aI531
aI2015
aI283
aI2043
asI1058
(lp1059
I2083
aI1766
aI1674
aI582
aI967
aI144
asI1059
(lp1060
I1691
aI623
aI784
aI1157
aI135
aI1687
asI1060
(lp1061
I64
aI1877
aI417
aI11
aI55
aI1958
asI1061
(lp1062
I2013
aI2005
aI1698
aI2004
aI71
aI453
asI1062
(lp1063
I552
aI1036
aI1052
aI1172
aI1543
aI1512
asI1063
(lp1064
I692
aI1703
aI919
aI1892
aI18
aI165
asI1064
(lp1065
I1418
aI991
aI929
aI1366
aI1156
aI249
asI1065
(lp1066
I1241
aI1917
aI1268
aI887
aI340
aI1253
asI1066
(lp1067
I130
aI636
aI1190
aI203
aI1366
aI338
asI1067
(lp1068
I1140
aI713
aI1785
aI1256
aI548
aI1751
asI1068
(lp1069
I1612
aI2113
aI1628
aI2095
aI2024
aI2123
asI1069
(lp1070
I1554
aI1752
aI502
aI1306
aI617
aI670
asI1070
(lp1071
I1663
aI250
aI648
aI731
aI918
aI990
asI1071
(lp1072
I2131
aI1113
aI391
aI416
aI1618
aI585
asI1072
(lp1073
I1909
aI934
aI651
aI1082
aI1934
aI2178
asI1073
(lp1074
I372
aI1470
aI1117
aI1438
aI1327
aI539
asI1074
(lp1075
I1532
aI1451
aI847
aI402
aI2050
aI445
asI1075
(lp1076
I610
aI2044
aI626
aI2032
aI690
aI244
asI1076
(lp1077
I1656
aI1146
aI1187
aI691
aI190
aI188
asI1077
(lp1078
I193
aI1397
aI1995
aI1173
aI49
aI1280
asI1078
(lp1079
I587
aI1634
aI1053
aI938
aI658
aI475
asI1079
(lp1080
I2061
aI291
aI1361
aI1391
aI1554
aI2091
asI1080
(lp1081
I325
aI587
aI193
aI1654
aI1371
aI1890
asI1081
(lp1082
I553
aI106
aI1801
aI950
aI869
aI1504
asI1082
(lp1083
I834
aI2071
aI1072
aI470
aI1345
aI1646
asI1083
(lp1084
I919
aI602
aI562
aI1888
aI1550
aI11
asI1084
(lp1085
I191
aI1213
aI1494
aI1200
aI1087
aI1975
asI1085
(lp1086
I1136
aI319
aI266
aI1339
aI434
aI2177
asI1086
(lp1087
I1479
aI300
aI1885
aI1345
aI956
aI1676
asI1087
(lp1088
I1113
aI471
aI140
aI916
aI522
aI1084
asI1088
(lp1089
I135
aI989
aI851
aI1795
aI250
aI1763
asI1089
(lp1090
I1056
aI1381
aI615
aI891
aI2079
aI1536
asI1090
(lp1091
I1098
aI2088
aI252
aI1302
aI596
aI1444
asI1091
(lp1092
I2142
aI924
aI628
aI21
aI468
aI231
asI1092
(lp1093
I1375
aI1870
aI1774
aI349
aI1604
aI861
asI1093
(lp1094
I1832
aI1138
aI1462
aI1285
aI1905
aI412
asI1094
(lp1095
I282
aI142
aI714
aI1797
aI1678
aI1447
asI1095
(lp1096
I1669
aI721
aI2150
aI156
aI88
aI403
asI1096
(lp1097
I16
aI889
aI643
aI527
aI1903
aI1501
asI1097
(lp1098
I1042
aI1127
aI2052
aI1956
aI1703
aI717
asI1098
(lp1099
I893
aI1090
aI999
aI1824
aI739
aI130
asI1099
(lp1100
I1476
aI741
aI1701
aI499
aI1199
aI2064
asI1100
(lp1101
I2101
aI426
aI2017
aI711
aI1944
aI1243
asI1101
(lp1102
I535
aI1916
aI144
aI729
aI944
aI897
asI1102
(lp1103
I855
aI1824
aI830
aI2106
aI1300
aI1481
asI1103
(lp1104
I897
aI1218
aI824
aI1220
aI327
aI413
asI1104
(lp1105
I1201
aI877
aI905
aI1882
aI738
aI1849
asI1105
(lp1106
I66
aI283
aI2049
aI264
aI213
aI1765
asI1106
(lp1107
I1767
aI450
aI2159
aI1852
aI501
aI1690
asI1107
(lp1108
I789
aI276
aI518
aI1668
aI206
aI1611
asI1108
(lp1109
I2092
aI230
aI1495
aI2131
aI625
aI1822
asI1109
(lp1110
I299
aI1024
aI1235
aI277
aI868
aI1356
asI1110
(lp1111
I1335
aI786
aI853
aI1193
aI1936
aI202
asI1111
(lp1112
I180
aI1203
aI1687
aI1112
aI1696
aI1639
asI1112
(lp1113
I2100
aI1924
aI1111
aI1839
aI177
aI39
asI1113
(lp1114
I1071
aI1087
aI2000
aI620
aI1792
aI1197
asI1114
(lp1115
I433
aI2158
aI9
aI1612
aI1564
aI1725
asI1115
(lp1116
I343
aI1052
aI1250
aI1563
aI241
aI905
asI1116
(lp1117
I804
aI40
aI713
aI50
aI1776
aI746
asI1117
(lp1118
I302
aI1302
aI209
aI1073
aI540
aI1952
asI1118
(lp1119
I734
aI1124
aI2006
aI1826
aI531
aI987
asI1119
(lp1120
I266
aI398
aI184
aI1840
aI1896
aI492
asI1120
(lp1121
I875
aI621
aI399
aI579
aI1350
aI712
asI1121
(lp1122
I2059
aI2166
aI1847
aI1505
aI1383
aI1277
asI1122
(lp1123
I1387
aI1950
aI2085
aI2144
aI666
aI752
asI1123
(lp1124
I338
aI223
aI1982
aI556
aI853
aI1999
asI1124
(lp1125
I1118
aI1674
aI56
aI271
aI1408
aI141
asI1125
(lp1126
I1641
aI431
aI1194
aI1784
aI2089
aI1720
asI1126
(lp1127
I1327
aI1728
aI1766
aI1981
aI957
aI626
asI1127
(lp1128
I1097
aI1607
aI1981
aI824
aI542
aI472
asI1128
(lp1129
I270
aI1723
aI1420
aI1405
aI1137
aI65
asI1129
(lp1130
I2148
aI1658
aI94
aI875
aI1286
aI1640
asI1130
(lp1131
I397
aI1000
aI711
aI784
aI217
aI1498
asI1131
(lp1132
I181
aI208
aI599
aI1230
aI681
aI890
asI1132
(lp1133
I138
aI728
aI1913
aI1006
aI1288
aI1551
asI1133
(lp1134
I1548
aI12
aI1470
aI623
aI301
aI126
asI1134
(lp1135
I1748
aI1288
aI317
aI1340
aI906
aI627
asI1135
(lp1136
I404
aI1854
aI2172
aI832
aI1032
aI1254
asI1136
(lp1137
I382
aI1085
aI1951
aI613
aI418
aI2107
asI1137
(lp1138
I953
aI1716
aI687
aI1954
aI1244
aI1128
asI1138
(lp1139
I1093
aI1581
aI1607
aI89
aI112
aI1831
asI1139
(lp1140
I782
aI1238
aI936
aI1847
aI381
aI1261
asI1140
(lp1141
I1542
aI1067
aI1989
aI399
aI60
aI1697
asI1141
(lp1142
I310
aI939
aI172
aI2071
aI338
aI557
asI1142
(lp1143
I980
aI157
aI944
aI786
aI1171
aI170
asI1143
(lp1144
I1358
aI2083
aI1649
aI677
aI1787
aI1644
asI1144
(lp1145
I1754
aI1891
aI1181
aI359
aI2110
aI377
asI1145
(lp1146
I2024
aI1499
aI715
aI800
aI2142
aI1357
asI1146
(lp1147
I1076
aI2020
aI631
aI476
aI848
aI1055
asI1147
(lp1148
I1336
aI2148
aI507
aI1993
aI357
aI2060
asI1148
(lp1149
I642
aI639
aI1882
aI723
aI1306
aI703
asI1149
(lp1150
I1032
aI957
aI906
aI1310
aI1972
aI697
asI1150
(lp1151
I659
aI640
aI529
aI951
aI266
aI1894
asI1151
(lp1152
I1157
aI238
aI815
aI1908
aI1216
aI510
asI1152
(lp1153
I1602
aI1641
aI1831
aI1868
aI353
aI1166
asI1153
(lp1154
I2152
aI207
aI2034
aI970
aI37
aI811
asI1154
(lp1155
I1807
aI285
aI674
aI1282
aI1398
aI1609
asI1155
(lp1156
I941
aI158
aI1034
aI115
aI1967
aI1225
asI1156
(lp1157
I1179
aI122
aI1991
aI454
aI620
aI1064
asI1157
(lp1158
I528
aI1151
aI1059
aI1228
aI11
aI2062
asI1158
(lp1159
I1551
aI2137
aI1644
aI1593
aI1893
aI123
asI1159
(lp1160
I612
aI1518
aI227
aI1243
aI589
aI433
asI1160
(lp1161
I319
aI1475
aI1270
aI132
aI103
aI525
asI1161
(lp1162
I918
aI2092
aI508
aI2081
aI1296
aI1040
asI1162
(lp1163
I699
aI624
aI164
aI1482
aI573
aI1415
asI1163
(lp1164
I1243
aI508
aI1624
aI1524
aI709
aI682
asI1164
(lp1165
I69
aI1794
aI166
aI825
aI189
aI266
asI1165
(lp1166
I55
aI1261
aI1629
aI1949
aI81
aI1599
asI1166
(lp1167
I885
aI1712
aI871
aI313
aI1152
aI1376
asI1167
(lp1168
I631
aI335
aI1990
aI111
aI590
aI1004
asI1168
(lp1169
I1459
aI139
aI1308
aI782
aI879
aI439
asI1169
(lp1170
I539
aI726
aI1631
aI249
aI186
aI1198
asI1170
(lp1171
I666
aI1296
aI1665
aI932
aI1572
aI180
asI1171
(lp1172
I616
aI2178
aI987
aI745
aI1847
aI1142
asI1172
(lp1173
I965
aI1993
aI1062
aI1212
aI335
aI2156
asI1173
(lp1174
I2143
aI2008
aI1077
aI999
aI306
aI1519
asI1174
(lp1175
I117
aI806
aI2040
aI1436
aI1030
aI1014
asI1175
(lp1176
I454
aI1373
aI1428
aI377
aI1005
aI630
asI1176
(lp1177
I805
aI1423
aI2061
aI2182
aI1942
aI1839
asI1177
(lp1178
I1370
aI1501
aI1014
aI1570
aI1404
aI1583
asI1178
(lp1179
I1345
aI1230
aI253
aI1643
aI444
aI788
asI1179
(lp1180
I1365
aI1156
aI718
aI619
aI1987
aI799
asI1180
(lp1181
I416
aI59
aI1542
aI1770
aI859
aI1294
asI1181
(lp1182
I1570
aI136
aI1375
aI1144
aI1838
aI108
asI1182
(lp1183
I627
aI314
aI1324
aI2086
aI1653
aI2121
asI1183
(lp1184
I1635
aI986
aI44
aI1869
aI268
aI1305
asI1184
(lp1185
I959
aI750
aI1752
aI2167
aI934
aI1520
asI1185
(lp1186
I419
aI1195
aI588
aI598
aI1529
aI250
asI1186
(lp1187
I200
aI2130
aI435
aI205
aI1984
aI604
asI1187
(lp1188
I276
aI271
aI1210
aI1076
aI441
aI1328
asI1188
(lp1189
I915
aI990
aI1230
aI730
aI1981
aI929
asI1189
(lp1190
I1819
aI744
aI1234
aI927
aI1352
aI2029
asI1190
(lp1191
I940
aI1465
aI2064
aI1066
aI593
aI591
asI1191
(lp1192
I1307
aI1244
aI283
aI2000
aI495
aI1568
asI1192
(lp1193
I1203
aI466
aI1263
aI1500
aI698
aI2054
asI1193
(lp1194
I312
aI804
aI1110
aI884
aI439
aI1740
asI1194
(lp1195
I1469
aI1516
aI1617
aI1125
aI1535
aI1506
asI1195
(lp1196
I1185
aI811
aI1690
aI2103
aI308
aI1804
asI1196
(lp1197
I131
aI509
aI1207
aI1036
aI408
aI573
asI1197
(lp1198
I985
aI506
aI836
aI1304
aI1113
aI1647
asI1198
(lp1199
I2159
aI205
aI1467
aI2138
aI1169
aI312
asI1199
(lp1200
I1291
aI1718
aI789
aI158
aI1507
aI1099
asI1200
(lp1201
I2179
aI632
aI1084
aI2051
aI1698
aI1300
asI1201
(lp1202
I2132
aI1104
aI1697
aI390
aI2048
aI1047
asI1202
(lp1203
I124
aI1665
aI774
aI1640
aI1763
aI2083
asI1203
(lp1204
I1111
aI1192
aI858
aI1580
aI1399
aI1821
asI1204
(lp1205
I334
aI1586
aI191
aI1592
aI971
aI1949
asI1205
(lp1206
I1776
aI1559
aI2002
aI1517
aI605
aI260
asI1206
(lp1207
I485
aI1904
aI1418
aI1941
aI1265
aI522
asI1207
(lp1208
I245
aI365
aI485
aI1196
aI1574
aI1988
asI1208
(lp1209
I1027
aI1336
aI1385
aI1408
aI1220
aI1885
asI1209
(lp1210
I46
aI1548
aI775
aI1725
aI748
aI199
asI1210
(lp1211
I1753
aI289
aI313
aI1187
aI538
aI617
asI1211
(lp1212
I1757
aI424
aI786
aI124
aI1626
aI728
asI1212
(lp1213
I841
aI5
aI1172
aI312
aI1713
aI642
asI1213
(lp1214
I1084
aI46
aI481
aI939
aI1884
aI1323
asI1214
(lp1215
I1654
aI133
aI458
aI333
aI368
aI209
asI1215
(lp1216
I617
aI664
aI1446
aI1496
aI1238
aI1615
asI1216
(lp1217
I402
aI1473
aI1271
aI981
aI653
aI1151
asI1217
(lp1218
I176
aI752
aI247
aI1298
aI1282
aI915
asI1218
(lp1219
I1103
aI492
aI1393
aI1026
aI263
aI255
asI1219
(lp1220
I948
aI92
aI120
aI2162
aI2111
aI620
asI1220
(lp1221
I1741
aI562
aI1103
aI1684
aI722
aI1208
asI1221
(lp1222
I35
aI992
aI705
aI879
aI1312
aI297
asI1222
(lp1223
I2104
aI1605
aI807
aI791
aI954
aI1862
asI1223
(lp1224
I328
aI585
aI2016
aI684
aI672
aI1810
asI1224
(lp1225
I1921
aI683
aI2066
aI1655
aI1870
aI1541
asI1225
(lp1226
I1952
aI411
aI948
aI998
aI1155
aI1505
asI1226
(lp1227
I1558
aI595
aI2140
aI2018
aI1738
aI91
asI1227
(lp1228
I810
aI1700
aI693
aI1614
aI421
aI1711
asI1228
(lp1229
I546
aI1977
aI1157
aI2008
aI2057
aI121
asI1229
(lp1230
I637
aI1604
aI598
aI1967
aI318
aI247
asI1230
(lp1231
I1178
aI821
aI1131
aI1188
aI33
aI696
asI1231
(lp1232
I1355
aI2007
aI1432
aI1870
aI646
aI1384
asI1232
(lp1233
I253
aI778
aI742
aI1484
aI1948
aI1773
asI1233
(lp1234
I308
aI402
aI833
aI1961
aI101
aI2026
asI1234
(lp1235
I151
aI978
aI6
aI1189
aI395
aI666
asI1235
(lp1236
I955
aI1929
aI1392
aI1109
aI894
aI975
asI1236
(lp1237
I825
aI1580
aI1299
aI1879
aI2
aI723
asI1237
(lp1238
I1477
aI1664
aI1972
aI1602
aI1667
aI361
asI1238
(lp1239
I1139
aI419
aI15
aI1748
aI364
aI1215
asI1239
(lp1240
I246
aI435
aI560
aI776
aI1746
aI1819
asI1240
(lp1241
I486
aI1299
aI356
aI1039
aI462
aI547
asI1241
(lp1242
I1772
aI1065
aI795
aI1703
aI27
aI1276
asI1242
(lp1243
I1283
aI348
aI1920
aI2115
aI1596
aI7
asI1243
(lp1244
I1978
aI1163
aI1159
aI1414
aI1100
aI1986
asI1244
(lp1245
I1191
aI818
aI282
aI316
aI15
aI1137
asI1245
(lp1246
I1489
aI156
aI401
aI35
aI67
aI699
asI1246
(lp1247
I206
aI1957
aI469
aI1790
aI223
aI609
asI1247
(lp1248
I2006
aI1563
aI297
aI1472
aI153
aI400
asI1248
(lp1249
I527
aI305
aI476
aI797
aI1301
aI1846
asI1249
(lp1250
I1523
aI1480
aI273
aI591
aI43
aI981
asI1250
(lp1251
I21
aI984
aI105
aI1115
aI1731
aI874
asI1251
(lp1252
I1714
aI1910
aI940
aI1845
aI1879
aI118
asI1252
(lp1253
I894
aI1853
aI1519
aI1541
aI102
aI2101
asI1253
(lp1254
I762
aI1005
aI1832
aI211
aI1065
aI823
asI1254
(lp1255
I412
aI13
aI57
aI1615
aI1135
aI393
asI1255
(lp1256
I993
aI1571
aI946
aI408
aI165
aI168
asI1256
(lp1257
I2174
aI1757
aI1067
aI1526
aI1548
aI362
asI1257
(lp1258
I420
aI788
aI1810
aI576
aI751
aI1828
asI1258
(lp1259
I160
aI1040
aI890
aI1919
aI1481
aI119
asI1259
(lp1260
I975
aI944
aI697
aI793
aI925
aI611
asI1260
(lp1261
I329
aI1614
aI1417
aI842
aI1423
aI1003
asI1261
(lp1262
I1165
aI1707
aI539
aI1619
aI1139
aI914
asI1262
(lp1263
I1004
aI374
aI1735
aI1012
aI727
aI306
asI1263
(lp1264
I1891
aI173
aI827
aI1192
aI1768
aI841
asI1264
(lp1265
I981
aI513
aI749
aI1610
aI1052
aI204
asI1265
(lp1266
I826
aI1843
aI1556
aI1877
aI220
aI1206
asI1266
(lp1267
I284
aI902
aI984
aI903
aI97
aI1604
asI1267
(lp1268
I324
aI1568
aI1875
aI523
aI696
aI1021
asI1268
(lp1269
I1869
aI976
aI188
aI1065
aI1415
aI1533
asI1269
(lp1270
I2120
aI1729
aI265
aI2140
aI507
aI775
asI1270
(lp1271
I780
aI1474
aI900
aI1160
aI1450
aI15
asI1271
(lp1272
I1278
aI1382
aI1971
aI1216
aI607
aI2127
asI1272
(lp1273
I1835
aI2142
aI1829
aI378
aI1004
aI142
asI1273
(lp1274
I182
aI376
aI1321
aI2168
aI1985
aI1900
asI1274
(lp1275
I2124
aI439
aI721
aI1693
aI550
aI1848
asI1275
(lp1276
I644
aI167
aI2176
aI1918
aI1442
aI1390
asI1276
(lp1277
I247
aI201
aI1372
aI350
aI1241
aI735
asI1277
(lp1278
I1304
aI625
aI2122
aI755
aI1121
aI619
asI1278
(lp1279
I811
aI1271
aI1848
aI1741
aI1826
aI267
asI1279
(lp1280
I1506
aI2093
aI501
aI2169
aI1017
aI218
asI1280
(lp1281
I1636
aI516
aI1621
aI1439
aI1077
aI181
asI1281
(lp1282
I1828
aI231
aI1310
aI961
aI275
aI636
asI1282
(lp1283
I1634
aI2
aI1154
aI1568
aI2029
aI1217
asI1283
(lp1284
I1591
aI1242
aI1304
aI364
aI735
aI815
asI1284
(lp1285
I864
aI48
aI820
aI896
aI210
aI833
asI1285
(lp1286
I358
aI967
aI1093
aI19
aI1692
aI2179
asI1286
(lp1287
I483
aI443
aI1413
aI465
aI3
aI1129
asI1287
(lp1288
I2147
aI1884
aI1769
aI1625
aI1797
aI410
asI1288
(lp1289
I1134
aI1804
aI1346
aI1516
aI50
aI1132
asI1289
(lp1290
I1685
aI1722
aI1664
aI775
aI673
aI707
asI1290
(lp1291
I599
aI15
aI767
aI1766
aI1449
aI1668
asI1291
(lp1292
I1333
aI1199
aI487
aI805
aI1389
aI1489
asI1292
(lp1293
I611
aI63
aI1836
aI849
aI818
aI893
asI1293
(lp1294
I2077
aI2118
aI1475
aI2033
aI1590
aI402
asI1294
(lp1295
I260
aI931
aI1954
aI92
aI1180
aI1721
asI1295
(lp1296
I1794
aI760
aI2167
aI1410
aI503
aI273
asI1296
(lp1297
I1170
aI1512
aI1533
aI1863
aI1857
aI1161
asI1297
(lp1298
I1999
aI1628
aI1898
aI672
aI1331
aI955
asI1298
(lp1299
I1302
aI2038
aI1217
aI1753
aI1348
aI1333
asI1299
(lp1300
I1240
aI140
aI1817
aI1236
aI244
aI317
asI1300
(lp1301
I1430
aI2135
aI1857
aI689
aI1200
aI1102
asI1301
(lp1302
I1342
aI483
aI503
aI1820
aI1849
aI1248
asI1302
(lp1303
I1117
aI1298
aI1090
aI554
aI991
aI1322
asI1303
(lp1304
I776
aI1892
aI2166
aI78
aI1675
aI2124
asI1304
(lp1305
I760
aI1277
aI1197
aI1283
aI2088
aI857
asI1305
(lp1306
I2076
aI678
aI108
aI117
aI1183
aI1329
asI1306
(lp1307
I1971
aI195
aI1069
aI1530
aI2008
aI1148
asI1307
(lp1308
I179
aI1191
aI1484
aI533
aI2148
aI341
asI1308
(lp1309
I628
aI1570
aI1681
aI1168
aI1695
aI2172
asI1309
(lp1310
I1876
aI807
aI1505
aI1451
aI1490
aI421
asI1310
(lp1311
I722
aI1969
aI1149
aI1281
aI1874
aI1459
asI1311
(lp1312
I549
aI202
aI214
aI806
aI1801
aI1405
asI1312
(lp1313
I1529
aI155
aI236
aI1544
aI2120
aI1221
asI1313
(lp1314
I2064
aI856
aI1019
aI1830
aI758
aI540
asI1314
(lp1315
I153
aI757
aI691
aI1679
aI710
aI2059
asI1315
(lp1316
I1455
aI2032
aI375
aI942
aI138
aI1685
asI1316
(lp1317
I1343
aI834
aI869
aI627
aI1636
aI551
asI1317
(lp1318
I1946
aI1393
aI37
aI1462
aI2097
aI1759
asI1318
(lp1319
I613
aI1574
aI2039
aI726
aI731
aI1547
asI1319
(lp1320
I908
aI1412
aI850
aI516
aI2127
aI2076
asI1320
(lp1321
I1719
aI1737
aI2041
aI432
aI815
aI676
asI1321
(lp1322
I962
aI308
aI434
aI1273
aI1465
aI487
asI1322
(lp1323
I1935
aI1939
aI1662
aI40
aI1302
aI1400
asI1323
(lp1324
I96
aI479
aI920
aI1969
aI1213
aI248
asI1324
(lp1325
I1394
aI659
aI1473
aI1182
aI2154
aI1468
asI1325
(lp1326
I61
aI1492
aI134
aI1759
aI2056
aI649
asI1326
(lp1327
I2111
aI773
aI321
aI940
aI1732
aI1561
asI1327
(lp1328
I87
aI1126
aI220
aI1902
aI1007
aI1073
asI1328
(lp1329
I445
aI383
aI1402
aI1844
aI1187
aI1902
asI1329
(lp1330
I1380
aI919
aI1339
aI193
aI1305
aI96
asI1330
(lp1331
I1936
aI577
aI158
aI508
aI284
aI2004
asI1331
(lp1332
I408
aI38
aI322
aI923
aI860
aI1297
asI1332
(lp1333
I700
aI960
aI490
aI982
aI133
aI1360
asI1333
(lp1334
I2134
aI1291
aI117
aI910
aI1298
aI1630
asI1334
(lp1335
I1661
aI561
aI1501
aI609
aI2076
aI219
asI1335
(lp1336
I1800
aI1110
aI174
aI630
aI1778
aI194
asI1336
(lp1337
I1208
aI1147
aI1342
aI1490
aI148
aI1714
asI1337
(lp1338
I1408
aI179
aI1504
aI1631
aI1950
aI24
asI1338
(lp1339
I956
aI2128
aI751
aI201
aI214
aI1761
asI1339
(lp1340
I1572
aI1811
aI1085
aI1329
aI677
aI1576
asI1340
(lp1341
I1400
aI363
aI1134
aI1460
aI1421
aI159
asI1341
(lp1342
I1786
aI264
aI776
aI822
aI791
aI1473
asI1342
(lp1343
I1647
aI1301
aI1663
aI1336
aI611
aI878
asI1343
(lp1344
I370
aI1316
aI526
aI2125
aI493
aI40
asI1344
(lp1345
I1778
aI2058
aI523
aI490
aI761
aI720
asI1345
(lp1346
I791
aI1178
aI1086
aI545
aI313
aI1082
asI1346
(lp1347
I203
aI1485
aI237
aI1288
aI274
aI230
asI1347
(lp1348
I413
aI1404
aI275
aI607
aI500
aI570
asI1348
(lp1349
I1664
aI2089
aI921
aI1940
aI195
aI1298
asI1349
(lp1350
I717
aI2002
aI1782
aI450
aI1759
aI222
asI1350
(lp1351
I1514
aI2023
aI1571
aI2055
aI1021
aI1120
asI1351
(lp1352
I425
aI1048
aI1669
aI2064
aI193
aI1633
asI1352
(lp1353
I1616
aI432
aI862
aI2014
aI404
aI1189
asI1353
(lp1354
I451
aI336
aI422
aI2141
aI183
aI1853
asI1354
(lp1355
I2173
aI206
aI585
aI906
aI1607
aI1933
asI1355
(lp1356
I1033
aI1231
aI794
aI1424
aI1890
aI1559
asI1356
(lp1357
I2005
aI344
aI957
aI569
aI1109
aI1971
asI1357
(lp1358
I322
aI1873
aI1497
aI371
aI1145
aI2077
asI1358
(lp1359
I1451
aI1143
aI1527
aI699
aI1024
aI734
asI1359
(lp1360
I398
aI1714
aI400
aI760
aI1744
aI1475
asI1360
(lp1361
I925
aI949
aI342
aI237
aI1332
aI1723
asI1361
(lp1362
I1940
aI1861
aI1742
aI1079
aI63
aI395
asI1362
(lp1363
I1662
aI1701
aI1877
aI101
aI333
aI90
asI1363
(lp1364
I636
aI74
aI327
aI353
aI2011
aI390
asI1364
(lp1365
I2050
aI252
aI11
aI1503
aI47
aI2115
asI1365
(lp1366
I1998
aI1179
aI23
aI1571
aI75
aI1675
asI1366
(lp1367
I1538
aI1878
aI1064
aI492
aI1413
aI1066
asI1367
(lp1368
I1525
aI1390
aI2072
aI3
aI737
aI1963
asI1368
(lp1369
I729
aI2060
aI1387
aI1928
aI1836
aI1996
asI1369
(lp1370
I482
aI1425
aI20
aI1712
aI1396
aI1017
asI1370
(lp1371
I540
aI1177
aI1860
aI1862
aI1956
aI1029
asI1371
(lp1372
I1872
aI1871
aI480
aI332
aI420
aI1080
asI1372
(lp1373
I798
aI710
aI1435
aI1276
aI204
aI1945
asI1373
(lp1374
I1175
aI6
aI410
aI914
aI1555
aI98
asI1374
(lp1375
I323
aI881
aI42
aI1022
aI1975
aI446
asI1375
(lp1376
I373
aI1092
aI498
aI1181
aI803
aI103
asI1376
(lp1377
I186
aI110
aI945
aI56
aI1166
aI564
asI1377
(lp1378
I489
aI2103
aI1022
aI640
aI2125
aI2157
asI1378
(lp1379
I1688
aI869
aI1548
aI1926
aI836
aI628
asI1379
(lp1380
I1528
aI1503
aI1704
aI785
aI131
aI1509
asI1380
(lp1381
I83
aI1329
aI558
aI1404
aI436
aI155
asI1381
(lp1382
I1089
aI1489
aI1580
aI559
aI2118
aI1937
asI1382
(lp1383
I1271
aI331
aI1568
aI1813
aI168
aI624
asI1383
(lp1384
I1988
aI1834
aI1719
aI1861
aI1953
aI1121
asI1384
(lp1385
I1880
aI438
aI1476
aI446
aI1231
aI281
asI1385
(lp1386
I597
aI334
aI1956
aI1208
aI36
aI1873
asI1386
(lp1387
I371
aI1660
aI857
aI2006
aI132
aI790
asI1387
(lp1388
I1816
aI1122
aI1021
aI1368
aI25
aI805
asI1388
(lp1389
I1939
aI1934
aI634
aI2183
aI403
aI37
asI1389
(lp1390
I265
aI2082
aI16
aI2179
aI1526
aI1291
asI1390
(lp1391
I1367
aI488
aI310
aI1722
aI1275
aI2106
asI1391
(lp1392
I121
aI1992
aI1079
aI714
aI1853
aI1731
asI1392
(lp1393
I403
aI805
aI1910
aI1235
aI606
aI566
asI1393
(lp1394
I1317
aI1682
aI730
aI1218
aI2132
aI848
asI1394
(lp1395
I197
aI1324
aI385
aI397
aI285
aI1695
asI1395
(lp1396
I1763
aI819
aI418
aI1008
aI1770
aI1539
asI1396
(lp1397
I147
aI1983
aI459
aI1644
aI16
aI1369
asI1397
(lp1398
I1077
aI1584
aI748
aI655
aI714
aI661
asI1398
(lp1399
I1821
aI907
aI1714
aI779
aI371
aI1154
asI1399
(lp1400
I30
aI1565
aI1018
aI1600
aI1727
aI1203
asI1400
(lp1401
I1953
aI1340
aI939
aI615
aI1322
aI586
asI1401
(lp1402
I761
aI1830
aI1520
aI149
aI1444
aI845
asI1402
(lp1403
I2155
aI1012
aI1661
aI1328
aI121
aI2019
asI1403
(lp1404
I773
aI927
aI99
aI594
aI392
aI1038
asI1404
(lp1405
I1347
aI882
aI1380
aI1927
aI1914
aI1177
asI1405
(lp1406
I694
aI1440
aI1128
aI934
aI1311
aI346
asI1406
(lp1407
I572
aI698
aI114
aI1822
aI1926
aI320
asI1407
(lp1408
I100
aI416
aI1962
aI549
aI342
aI357
asI1408
(lp1409
I653
aI1337
aI1208
aI2124
aI458
aI1124
asI1409
(lp1410
I210
aI2150
aI649
aI685
aI1721
aI1878
asI1410
(lp1411
I661
aI1001
aI1295
aI1866
aI843
aI237
asI1411
(lp1412
I70
aI737
aI295
aI346
aI1998
aI458
asI1412
(lp1413
I1319
aI1
aI1590
aI931
aI509
aI1865
asI1413
(lp1414
I1014
aI1597
aI378
aI1286
aI1603
aI1366
asI1414
(lp1415
I1450
aI755
aI1243
aI574
aI151
aI832
asI1415
(lp1416
I949
aI1987
aI600
aI1510
aI1162
aI1268
asI1416
(lp1417
I2128
aI1452
aI554
aI79
aI1611
aI233
asI1417
(lp1418
I944
aI600
aI584
aI1260
aI676
aI709
asI1418
(lp1419
I1863
aI1064
aI241
aI1206
aI909
aI44
asI1419
(lp1420
I1841
aI653
aI1816
aI668
aI2181
aI552
asI1420
(lp1421
I658
aI996
aI1573
aI1128
aI993
aI1614
asI1421
(lp1422
I2022
aI1936
aI838
aI418
aI592
aI1340
asI1422
(lp1423
I874
aI666
aI1581
aI286
aI2040
aI1913
asI1423
(lp1424
I1176
aI843
aI837
aI966
aI385
aI1260
asI1424
(lp1425
I362
aI472
aI1355
aI577
aI846
aI2041
asI1425
(lp1426
I1369
aI481
aI1006
aI924
aI759
aI157
asI1426
(lp1427
I2015
aI933
aI229
aI1453
aI1592
aI523
asI1427
(lp1428
I714
aI147
aI683
aI2132
aI2017
aI582
asI1428
(lp1429
I105
aI609
aI848
aI1175
aI567
aI1866
asI1429
(lp1430
I2025
aI2119
aI1591
aI507
aI1620
aI314
asI1430
(lp1431
I2054
aI1300
aI338
aI1872
aI2158
aI681
asI1431
(lp1432
I1774
aI2123
aI2025
aI704
aI365
aI2078
asI1432
(lp1433
I331
aI782
aI1906
aI1231
aI1760
aI1789
asI1433
(lp1434
I2109
aI707
aI1931
aI460
aI176
aI575
asI1434
(lp1435
I2091
aI2035
aI48
aI1777
aI383
aI50
asI1435
(lp1436
I1010
aI372
aI1464
aI1372
aI46
aI305
asI1436
(lp1437
I1442
aI936
aI1174
aI482
aI264
aI1814
asI1437
(lp1438
I1622
aI633
aI477
aI1557
aI1935
aI125
asI1438
(lp1439
I1534
aI14
aI1073
aI66
aI933
aI1741
asI1439
(lp1440
I18
aI1780
aI1280
aI252
aI489
aI810
asI1440
(lp1441
I1405
aI1831
aI800
aI1495
aI1501
aI1858
asI1441
(lp1442
I911
aI693
aI1935
aI192
aI591
aI954
asI1442
(lp1443
I1698
aI1436
aI2148
aI718
aI1762
aI1275
asI1443
(lp1444
I406
aI1994
aI288
aI31
aI72
aI1772
asI1444
(lp1445
I2107
aI780
aI250
aI1731
aI1090
aI1401
asI1445
(lp1446
I677
aI1947
aI1547
aI1448
aI360
aI1936
asI1446
(lp1447
I1522
aI427
aI769
aI1215
aI2155
aI1664
asI1447
(lp1448
I820
aI225
aI2182
aI22
aI1094
aI1672
asI1448
(lp1449
I808
aI502
aI1445
aI741
aI463
aI962
asI1449
(lp1450
I292
aI2063
aI18
aI1662
aI798
aI1290
asI1450
(lp1451
I503
aI1414
aI1670
aI64
aI762
aI1270
asI1451
(lp1452
I1074
aI1358
aI1309
aI1972
aI1519
aI567
asI1452
(lp1453
I1416
aI686
aI354
aI330
aI229
aI1048
asI1453
(lp1454
I716
aI655
aI1426
aI1856
aI1485
aI837
asI1454
(lp1455
I453
aI1966
aI978
aI287
aI802
aI208
asI1455
(lp1456
I880
aI1315
aI520
aI129
aI1505
aI977
asI1456
(lp1457
I2002
aI523
aI348
aI959
aI872
aI3
asI1457
(lp1458
I640
aI400
aI663
aI67
aI161
aI1622
asI1458
(lp1459
I1467
aI2091
aI334
aI2166
aI1821
aI1877
asI1459
(lp1460
I144
aI1168
aI740
aI1560
aI1310
aI956
asI1460
(lp1461
I898
aI1651
aI1340
aI231
aI261
aI674
asI1461
(lp1462
I907
aI216
aI2035
aI1751
aI1039
aI2065
asI1462
(lp1463
I1577
aI657
aI1317
aI1093
aI1661
aI74
asI1463
(lp1464
I228
aI1863
aI1998
aI412
aI1545
aI1781
asI1464
(lp1465
I524
aI359
aI1963
aI1435
aI1699
aI1912
asI1465
(lp1466
I1190
aI1577
aI2007
aI1930
aI2106
aI1321
asI1466
(lp1467
I1904
aI930
aI655
aI739
aI1020
aI614
asI1467
(lp1468
I1955
aI1458
aI1718
aI1198
aI1511
aI1908
asI1468
(lp1469
I1006
aI364
aI1936
aI1916
aI1324
aI1032
asI1469
(lp1470
I768
aI1194
aI1943
aI202
aI1576
aI352
asI1470
(lp1471
I1073
aI392
aI1686
aI1133
aI504
aI193
asI1471
(lp1472
I1579
aI908
aI1653
aI835
aI994
aI1932
asI1472
(lp1473
I1846
aI777
aI1247
aI1555
aI449
aI966
asI1473
(lp1474
I1216
aI1644
aI916
aI1324
aI1341
aI898
asI1474
(lp1475
I1270
aI1927
aI923
aI70
aI1848
aI1946
asI1475
(lp1476
I1160
aI519
aI1673
aI1293
aI1359
aI2014
asI1476
(lp1477
I62
aI1099
aI10
aI1384
aI831
aI1790
asI1477
(lp1478
I446
aI1237
aI680
aI302
aI1909
aI512
asI1478
(lp1479
I833
aI1786
aI1894
aI562
aI1844
aI1883
asI1479
(lp1480
I1557
aI1086
aI756
aI1974
aI1
aI1702
asI1480
(lp1481
I1249
aI1868
aI819
aI759
aI1680
aI519
asI1481
(lp1482
I50
aI446
aI330
aI1538
aI1102
aI1258
asI1482
(lp1483
I332
aI217
aI1162
aI958
aI955
aI1484
asI1483
(lp1484
I1639
aI1962
aI2082
aI603
aI251
aI182
asI1484
(lp1485
I461
aI194
aI1232
aI1307
aI1482
aI2033
asI1485
(lp1486
I1346
aI2049
aI995
aI565
aI1745
aI1453
asI1486
(lp1487
I592
aI428
aI130
aI1960
aI29
aI718
asI1487
(lp1488
I1802
aI838
aI561
aI893
aI1011
aI787
asI1488
(lp1489
I614
aI1818
aI1749
aI2145
aI427
aI711
asI1489
(lp1490
I1381
aI1245
aI903
aI181
aI1291
aI215
asI1490
(lp1491
I2137
aI1668
aI1336
aI80
aI10
aI1309
asI1491
(lp1492
I774
aI2024
aI580
aI894
aI147
aI506
asI1492
(lp1493
I1325
aI340
aI238
aI335
aI1837
aI824
asI1493
(lp1494
I1620
aI893
aI1728
aI238
aI1676
aI759
asI1494
(lp1495
I1987
aI740
aI867
aI1084
aI2168
aI576
asI1495
(lp1496
I3
aI1848
aI1440
aI1108
aI2027
aI228
asI1496
(lp1497
I641
aI360
aI1215
aI46
aI569
aI378
asI1497
(lp1498
I1766
aI702
aI2009
aI1357
aI965
aI1518
asI1498
(lp1499
I99
aI779
aI1949
aI131
aI1130
aI1514
asI1499
(lp1500
I1145
aI2162
aI2030
aI292
aI960
aI842
asI1500
(lp1501
I1512
aI1659
aI1192
aI1986
aI1873
aI514
asI1501
(lp1502
I1177
aI64
aI2038
aI1334
aI1096
aI1440
asI1502
(lp1503
I463
aI517
aI976
aI234
aI963
aI693
asI1503
(lp1504
I1379
aI2022
aI1364
aI395
aI2028
aI2095
asI1504
(lp1505
I1036
aI705
aI1862
aI1337
aI1081
aI2042
asI1505
(lp1506
I585
aI708
aI1121
aI1309
aI1225
aI1455
asI1506
(lp1507
I739
aI1279
aI1854
aI1757
aI1194
aI2120
asI1507
(lp1508
I504
aI1918
aI2105
aI541
aI173
aI1199
asI1508
(lp1509
I465
aI884
aI2088
aI1841
aI513
aI2176
asI1509
(lp1510
I899
aI1802
aI1627
aI2109
aI1379
aI600
asI1510
(lp1511
I192
aI2152
aI1415
aI48
aI1865
aI1732
asI1511
(lp1512
I347
aI281
aI694
aI1562
aI425
aI1467
asI1512
(lp1513
I1296
aI1500
aI781
aI853
aI1062
aI9
asI1513
(lp1514
I593
aI1832
aI509
aI694
aI277
aI1042
asI1514
(lp1515
I199
aI1350
aI647
aI1728
aI1498
aI771
asI1515
(lp1516
I232
aI1536
aI1872
aI838
aI258
aI740
asI1516
(lp1517
I1194
aI862
aI1288
aI628
aI1589
aI952
asI1517
(lp1518
I1618
aI141
aI1205
aI1723
aI574
aI1558
asI1518
(lp1519
I1159
aI96
aI1756
aI489
aI1497
aI581
asI1519
(lp1520
I565
aI321
aI78
aI1252
aI1173
aI1451
asI1520
(lp1521
I643
aI261
aI1695
aI1401
aI1184
aI1762
asI1521
(lp1522
I952
aI1742
aI1636
aI250
aI712
aI1530
asI1522
(lp1523
I438
aI1446
aI803
aI1963
aI976
aI616
asI1523
(lp1524
I603
aI1249
aI2147
aI2017
aI272
aI1824
asI1524
(lp1525
I604
aI2062
aI1163
aI1821
aI1652
aI72
asI1525
(lp1526
I242
aI1367
aI941
aI409
aI752
aI994
asI1526
(lp1527
I1567
aI49
aI1256
aI351
aI1897
aI1389
asI1527
(lp1528
I422
aI358
aI755
aI1358
aI355
aI850
asI1528
(lp1529
I1646
aI1379
aI799
aI285
aI564
aI1673
asI1529
(lp1530
I922
aI1312
aI143
aI2084
aI2023
aI1185
asI1530
(lp1531
I1937
aI1669
aI1306
aI273
aI1521
aI920
asI1531
(lp1532
I231
aI1808
aI780
aI100
aI73
aI366
asI1532
(lp1533
I119
aI1074
aI307
aI901
aI891
aI621
asI1533
(lp1534
I647
aI1049
aI2123
aI1296
aI1268
aI80
asI1534
(lp1535
I1547
aI1438
aI570
aI828
aI1748
aI1960
asI1535
(lp1536
I1549
aI145
aI553
aI448
aI1644
aI1194
asI1536
(lp1537
I1515
aI803
aI550
aI530
aI1089
aI762
asI1537
(lp1538
I102
aI2120
aI126
aI850
aI902
aI172
asI1538
(lp1539
I1856
aI1366
aI1481
aI235
aI448
aI902
asI1539
(lp1540
I1924
aI1595
aI1794
aI773
aI1395
aI210
asI1540
(lp1541
I286
aI918
aI1555
aI2007
aI30
aI1977
asI1541
(lp1542
I443
aI1599
aI1252
aI118
aI1224
aI2105
asI1542
(lp1543
I858
aI1140
aI2010
aI1180
aI312
aI1046
asI1543
(lp1544
I2079
aI315
aI2048
aI1719
aI641
aI1062
asI1544
(lp1545
I1613
aI184
aI1312
aI2
aI1841
aI392
asI1545
(lp1546
I1803
aI1856
aI878
aI682
aI897
aI1463
asI1546
(lp1547
I85
aI712
aI1796
aI994
aI1997
aI1607
asI1547
(lp1548
I143
aI1534
aI1924
aI1445
aI1318
aI733
asI1548
(lp1549
I1209
aI1133
aI565
aI1378
aI1780
aI1256
asI1549
(lp1550
I162
aI1535
aI343
aI2146
aI490
aI104
asI1550
(lp1551
I2108
aI1812
aI201
aI172
aI743
aI1083
asI1551
(lp1552
I2118
aI1158
aI1907
aI1578
aI1132
aI184
asI1552
(lp1553
I521
aI909
aI1747
aI912
aI1906
aI1794
asI1553
(lp1554
I167
aI1666
aI1874
aI322
aI2098
aI411
asI1554
(lp1555
I472
aI1069
aI729
aI424
aI1018
aI1079
asI1555
(lp1556
I39
aI389
aI1472
aI1540
aI1669
aI1373
asI1556
(lp1557
I598
aI638
aI1966
aI1265
aI409
aI2039
asI1557
(lp1558
I958
aI1479
aI1437
aI588
aI2031
aI1655
asI1558
(lp1559
I1859
aI1226
aI95
aI1915
aI1517
aI1879
asI1559
(lp1560
I1205
aI1715
aI942
aI1697
aI1355
aI1688
asI1560
(lp1561
I668
aI1883
aI1459
aI926
aI1563
aI143
asI1561
(lp1562
I728
aI80
aI1576
aI1564
aI1326
aI470
asI1562
(lp1563
I442
aI1885
aI1511
aI1982
aI1771
aI386
asI1563
(lp1564
I1247
aI1810
aI1115
aI215
aI1641
aI1560
asI1564
(lp1565
I933
aI1721
aI1561
aI587
aI152
aI1114
asI1565
(lp1566
I1399
aI75
aI2084
aI1976
aI741
aI224
asI1566
(lp1567
I793
aI2122
aI2128
aI126
aI442
aI416
asI1567
(lp1568
I568
aI1526
aI112
aI646
aI1737
aI2013
asI1568
(lp1569
I1267
aI709
aI1282
aI1382
aI1191
aI546
asI1569
(lp1570
I1958
aI153
aI1700
aI1897
aI2126
aI173
asI1570
(lp1571
I1308
aI1181
aI1177
aI1746
aI665
aI288
asI1571
(lp1572
I1255
aI1932
aI1365
aI1350
aI2039
aI471
asI1572
(lp1573
I870
aI1339
aI685
aI963
aI1022
aI1170
asI1573
(lp1574
I672
aI2141
aI1757
aI1420
aI2143
aI715
asI1574
(lp1575
I1318
aI525
aI457
aI254
aI1805
aI1207
asI1575
(lp1576
I111
aI1593
aI2179
aI1738
aI240
aI428
asI1576
(lp1577
I93
aI1862
aI1815
aI1561
aI1339
aI1469
asI1577
(lp1578
I1465
aI1462
aI2043
aI801
aI927
aI41
asI1578
(lp1579
I172
aI244
aI1551
aI1639
aI119
aI328
asI1579
(lp1580
I241
aI1471
aI2103
aI1019
aI796
aI2098
asI1580
(lp1581
I1236
aI743
aI1203
aI1381
aI2016
aI1993
asI1581
(lp1582
I1138
aI104
aI153
aI1422
aI435
aI1019
asI1582
(lp1583
I306
aI867
aI60
aI2076
aI1750
aI423
asI1583
(lp1584
I44
aI1693
aI750
aI997
aI1177
aI931
asI1584
(lp1585
I1397
aI288
aI953
aI597
aI602
aI1634
asI1585
(lp1586
I268
aI970
aI2033
aI1710
aI1767
aI504
asI1586
(lp1587
I1204
aI1010
aI244
aI4
aI1628
aI2148
asI1587
(lp1588
I996
aI39
aI2
aI1805
aI604
aI1976
asI1588
(lp1589
I128
aI115
aI1940
aI748
aI100
aI1802
asI1589
(lp1590
I1994
aI356
aI412
aI1867
aI2055
aI1516
asI1590
(lp1591
I183
aI111
aI865
aI1412
aI2073
aI1293
asI1591
(lp1592
I909
aI1283
aI168
aI1429
aI717
aI618
asI1592
(lp1593
I1621
aI527
aI1204
aI151
aI117
aI1426
asI1593
(lp1594
I1575
aI175
aI1158
aI2164
aI825
aI17
asI1594
(lp1595
I671
aI2025
aI2132
aI1000
aI128
aI1966
asI1595
(lp1596
I1539
aI1055
aI2073
aI310
aI466
aI326
asI1596
(lp1597
I921
aI539
aI627
aI780
aI889
aI1242
asI1597
(lp1598
I1413
aI55
aI331
aI1015
aI461
aI1783
asI1598
(lp1599
I394
aI254
aI210
aI976
aI923
aI1734
asI1599
(lp1600
I1541
aI8
aI947
aI485
aI1165
aI258
asI1600
(lp1601
I1700
aI294
aI1399
aI1706
aI163
aI425
asI1601
(lp1602
I110
aI955
aI546
aI2142
aI413
aI2073
asI1602
(lp1603
I118
aI1152
aI1237
aI2036
aI515
aI1736
asI1603
(lp1604
I1918
aI1844
aI597
aI82
aI92
aI1413
asI1604
(lp1605
I1229
aI675
aI881
aI47
aI1266
aI1092
asI1605
(lp1606
I1222
aI645
aI2170
aI32
aI379
aI468
asI1606
(lp1607
I2060
aI2139
aI1941
aI197
aI532
aI1990
asI1607
(lp1608
I1127
aI959
aI970
aI1138
aI1546
aI1354
asI1608
(lp1609
I779
aI1912
aI733
aI2058
aI911
aI1956
asI1609
(lp1610
I95
aI2090
aI896
aI517
aI1154
aI1799
asI1610
(lp1611
I97
aI1784
aI1264
aI1696
aI2020
aI780
asI1611
(lp1612
I1026
aI734
aI1841
aI1865
aI1107
aI1416
asI1612
(lp1613
I1912
aI1068
aI1114
aI804
aI216
aI1760
asI1613
(lp1614
I947
aI1544
aI2081
aI2133
aI904
aI279
asI1614
(lp1615
I1260
aI233
aI1227
aI921
aI1420
aI641
asI1615
(lp1616
I436
aI676
aI1254
aI595
aI1215
aI270
asI1616
(lp1617
I1862
aI1352
aI1712
aI175
aI125
aI371
asI1617
(lp1618
I2123
aI1749
aI1866
aI1194
aI834
aI436
asI1618
(lp1619
I1865
aI1517
aI1918
aI1734
aI90
aI1071
asI1619
(lp1620
I194
aI601
aI1261
aI1645
aI1693
aI992
asI1620
(lp1621
I1991
aI1493
aI1710
aI1052
aI2130
aI1429
asI1621
(lp1622
I896
aI1592
aI839
aI1280
aI417
aI178
asI1622
(lp1623
I2069
aI1437
aI235
aI1636
aI1457
aI2142
asI1623
(lp1624
I141
aI253
aI471
aI423
aI19
aI534
asI1624
(lp1625
I573
aI668
aI541
aI1163
aI185
aI225
asI1625
(lp1626
I1875
aI790
aI1287
aI1744
aI2030
aI796
asI1626
(lp1627
I345
aI695
aI842
aI754
aI48
aI1211
asI1627
(lp1628
I1711
aI51
aI1015
aI1509
aI977
aI2061
asI1628
(lp1629
I1297
aI467
aI64
aI1068
aI959
aI1586
asI1629
(lp1630
I361
aI2017
aI74
aI1165
aI65
aI2079
asI1630
(lp1631
I1677
aI552
aI1632
aI2023
aI1333
aI872
asI1631
(lp1632
I222
aI324
aI1337
aI1169
aI811
aI587
asI1632
(lp1633
I1903
aI473
aI1650
aI1630
aI212
aI729
asI1633
(lp1634
I648
aI906
aI374
aI2129
aI1351
aI1715
asI1634
(lp1635
I1078
aI1282
aI889
aI28
aI1584
aI2011
asI1635
(lp1636
I2031
aI1183
aI181
aI339
aI378
aI853
asI1636
(lp1637
I796
aI1280
aI1622
aI1521
aI1709
aI1316
asI1637
(lp1638
I456
aI1930
aI519
aI952
aI1025
aI1643
asI1638
(lp1639
I263
aI650
aI1892
aI1939
aI474
aI1654
asI1639
(lp1640
I2162
aI1483
aI1578
aI669
aI1111
aI220
asI1640
(lp1641
I1905
aI434
aI1202
aI650
aI1129
aI744
asI1641
(lp1642
I1152
aI1125
aI377
aI41
aI57
aI1563
asI1642
(lp1643
I1029
aI503
aI107
aI2159
aI876
aI685
asI1643
(lp1644
I2167
aI2059
aI1178
aI303
aI1637
aI2038
asI1644
(lp1645
I1473
aI1789
aI1396
aI1158
aI1143
aI1535
asI1645
(lp1646
I2046
aI1695
aI1619
aI708
aI1689
aI100
asI1646
(lp1647
I670
aI1528
aI559
aI911
aI1082
aI1914
asI1647
(lp1648
I839
aI1342
aI200
aI1756
aI1197
aI42
asI1648
(lp1649
I1715
aI352
aI397
aI1050
aI245
aI253
asI1649
(lp1650
I383
aI257
aI178
aI1143
aI792
aI2055
asI1650
(lp1651
I633
aI634
aI669
aI1632
aI23
aI550
asI1651
(lp1652
I1460
aI47
aI1711
aI2096
aI772
aI122
asI1652
(lp1653
I1673
aI2175
aI176
aI742
aI652
aI1524
asI1653
(lp1654
I872
aI131
aI1994
aI1471
aI1881
aI1182
asI1654
(lp1655
I910
aI1214
aI1080
aI130
aI1638
aI2085
asI1655
(lp1656
I566
aI772
aI1224
aI152
aI1557
aI162
asI1656
(lp1657
I1730
aI1076
aI771
aI150
aI769
aI544
asI1657
(lp1658
I1683
aI494
aI866
aI871
aI1751
aI156
asI1658
(lp1659
I1129
aI475
aI622
aI345
aI291
aI866
asI1659
(lp1660
I1500
aI544
aI230
aI1681
aI2173
aI991
asI1660
(lp1661
I1386
aI328
aI240
aI145
aI1049
aI580
asI1661
(lp1662
I856
aI1334
aI885
aI1402
aI953
aI1462
asI1662
(lp1663
I889
aI1362
aI1449
aI1322
aI1682
aI1779
asI1663
(lp1664
I1847
aI1070
aI717
aI1342
aI2150
aI2093
asI1664
(lp1665
I1237
aI1348
aI605
aI1289
aI1446
aI995
asI1665
(lp1666
I1202
aI322
aI392
aI1170
aI920
aI33
asI1666
(lp1667
I1553
aI102
aI1851
aI2048
aI638
aI19
asI1667
(lp1668
I1017
aI2171
aI791
aI222
aI1954
aI1237
asI1668
(lp1669
I1490
aI1905
aI1107
aI1764
aI1290
aI993
asI1669
(lp1670
I1530
aI1095
aI613
aI1351
aI849
aI1555
asI1670
(lp1671
I2067
aI21
aI128
aI1450
aI1788
aI835
asI1671
(lp1672
I2073
aI429
aI2031
aI886
aI980
aI2092
asI1672
(lp1673
I522
aI2018
aI1993
aI799
aI1447
aI469
asI1673
(lp1674
I1849
aI1652
aI312
aI1475
aI1528
aI665
asI1674
(lp1675
I1124
aI461
aI474
aI1058
aI2103
aI345
asI1675
(lp1676
I1893
aI815
aI151
aI580
aI1365
aI1303
asI1676
(lp1677
I2035
aI302
aI1863
aI1740
aI1086
aI1493
asI1677
(lp1678
I269
aI1630
aI1762
aI666
aI844
aI407
asI1678
(lp1679
I654
aI885
aI1023
aI220
aI93
aI1094
asI1679
(lp1680
I243
aI887
aI1314
aI1707
aI797
aI360
asI1680
(lp1681
I421
aI733
aI1732
aI169
aI1702
aI1480
asI1681
(lp1682
I1881
aI593
aI1659
aI1308
aI1799
aI2036
asI1682
(lp1683
I1393
aI490
aI2090
aI528
aI514
aI1662
asI1683
(lp1684
I743
aI1657
aI1049
aI1885
aI433
aI62
asI1684
(lp1685
I1729
aI983
aI1220
aI242
aI399
aI849
asI1685
(lp1686
I881
aI1289
aI665
aI491
aI1315
aI1942
asI1686
(lp1687
I1997
aI423
aI212
aI1470
aI711
aI2044
asI1687
(lp1688
I207
aI1813
aI992
aI1111
aI1059
aI1938
asI1688
(lp1689
I1823
aI1378
aI1708
aI1017
aI1559
aI606
asI1689
(lp1690
I434
aI2077
aI104
aI2157
aI499
aI1645
asI1690
(lp1691
I555
aI448
aI1727
aI1195
aI1106
aI301
asI1691
(lp1692
I905
aI1059
aI2180
aI502
aI1714
aI1700
asI1692
(lp1693
I417
aI377
aI1026
aI881
aI496
aI1285
asI1693
(lp1694
I1583
aI1926
aI1274
aI422
aI1854
aI1619
asI1694
(lp1695
I2072
aI387
aI137
aI99
aI188
aI2125
asI1695
(lp1696
I1645
aI1051
aI796
aI1520
aI1394
aI1308
asI1696
(lp1697
I254
aI221
aI1610
aI5
aI446
aI1111
asI1697
(lp1698
I81
aI1705
aI1559
aI1201
aI1140
aI88
asI1698
(lp1699
I562
aI1442
aI1915
aI1061
aI331
aI1200
asI1699
(lp1700
I1707
aI588
aI1020
aI500
aI34
aI1464
asI1700
(lp1701
I1227
aI1600
aI440
aI1569
aI1691
aI114
asI1701
(lp1702
I1362
aI1900
aI726
aI1099
aI555
aI442
asI1702
(lp1703
I1779
aI437
aI557
aI110
aI1479
aI1680
asI1703
(lp1704
I1063
aI1825
aI1241
aI788
aI484
aI1097
asI1704
(lp1705
I2039
aI89
aI610
aI1379
aI937
aI2102
asI1705
(lp1706
I1697
aI500
aI727
aI1035
aI1725
aI599
asI1706
(lp1707
I1985
aI282
aI1600
aI1025
aI1846
aI1947
asI1707
(lp1708
I1261
aI1699
aI1679
aI866
aI2074
aI2104
asI1708
(lp1709
I536
aI715
aI874
aI1688
aI961
aI2031
asI1709
(lp1710
I600
aI232
aI532
aI678
aI771
aI1636
asI1710
(lp1711
I488
aI1851
aI1585
aI1620
aI2075
aI485
asI1711
(lp1712
I1866
aI1627
aI777
aI1651
aI1227
aI197
asI1712
(lp1713
I1166
aI1965
aI1369
aI1616
aI1930
aI83
asI1713
(lp1714
I279
aI626
aI551
aI900
aI2082
aI1212
asI1714
(lp1715
I1359
aI1251
aI2079
aI1398
aI1336
aI1691
asI1715
(lp1716
I1559
aI1648
aI1909
aI860
aI1633
aI852
asI1716
(lp1717
I1137
aI452
aI171
aI2016
aI974
aI924
asI1717
(lp1718
I1839
aI756
aI1833
aI95
aI288
aI457
asI1718
(lp1719
I1199
aI445
aI1036
aI1467
aI724
aI133
asI1719
(lp1720
I333
aI1320
aI1543
aI1383
aI529
aI923
asI1720
(lp1721
I462
aI246
aI2183
aI1832
aI1125
aI2023
asI1721
(lp1722
I1564
aI2004
aI365
aI305
aI1294
aI1409
asI1722
(lp1723
I1289
aI1815
aI1390
aI762
aI987
aI463
asI1723
(lp1724
I1128
aI125
aI1517
aI656
aI1360
aI148
asI1724
(lp1725
I649
aI36
aI263
aI42
aI940
aI1015
asI1725
(lp1726
I188
aI840
aI1209
aI189
aI1114
aI1705
asI1726
(lp1727
I2112
aI866
aI1786
aI845
aI705
aI1776
asI1727
(lp1728
I1888
aI1864
aI125
aI1690
aI42
aI1399
asI1728
(lp1729
I1126
aI311
aI1514
aI1493
aI979
aI2030
asI1729
(lp1730
I1269
aI1684
aI1876
aI1849
aI907
aI870
asI1730
(lp1731
I2000
aI1656
aI368
aI1924
aI178
aI38
asI1731
(lp1732
I109
aI591
aI1444
aI354
aI1391
aI1250
asI1732
(lp1733
I376
aI714
aI219
aI1680
aI1510
aI1326
asI1733
(lp1734
I1758
aI850
aI415
aI1893
aI556
aI1925
asI1734
(lp1735
I619
aI9
aI1618
aI709
aI1598
aI332
asI1735
(lp1736
I988
aI1865
aI876
aI1262
aI1964
aI5
asI1736
(lp1737
I942
aI768
aI657
aI1851
aI1602
aI1774
asI1737
(lp1738
I1320
aI297
aI2154
aI2135
aI303
aI1567
asI1738
(lp1739
I137
aI505
aI1575
aI808
aI319
aI1226
asI1739
(lp1740
I290
aI1860
aI248
aI566
aI166
aI1782
asI1740
(lp1741
I1755
aI2133
aI1676
aI1990
aI1193
aI16
asI1741
(lp1742
I155
aI1220
aI1278
aI336
aI1438
aI727
asI1742
(lp1743
I1521
aI2124
aI624
aI1361
aI2094
aI1022
asI1743
(lp1744
I378
aI916
aI115
aI1040
aI718
aI1769
asI1744
(lp1745
I2121
aI476
aI1625
aI1944
aI110
aI1359
asI1745
(lp1746
I850
aI375
aI1032
aI874
aI2019
aI1485
asI1746
(lp1747
I2122
aI146
aI1570
aI1950
aI600
aI1239
asI1747
(lp1748
I317
aI26
aI452
aI1552
aI54
aI638
asI1748
(lp1749
I2138
aI1134
aI1238
aI948
aI630
aI1534
asI1749
(lp1750
I1617
aI120
aI591
aI1488
aI2070
aI2074
asI1750
(lp1751
I675
aI463
aI425
aI720
aI267
aI1582
asI1751
(lp1752
I466
aI410
aI1461
aI1004
aI1067
aI1657
asI1752
(lp1753
I1069
aI1990
aI77
aI1184
aI561
aI1889
asI1753
(lp1754
I890
aI1210
aI1298
aI1948
aI557
aI1923
asI1754
(lp1755
I869
aI1144
aI966
aI352
aI180
aI409
asI1755
(lp1756
I291
aI1740
aI689
aI2117
aI387
aI280
asI1756
(lp1757
I2082
aI1779
aI1647
aI1518
aI716
aI983
asI1757
(lp1758
I1256
aI1211
aI1506
aI1573
aI689
aI2002
asI1758
(lp1759
I2098
aI1733
aI499
aI248
aI1899
aI1791
asI1759
(lp1760
I765
aI1790
aI1325
aI318
aI1317
aI1349
asI1760
(lp1761
I195
aI259
aI1822
aI575
aI1612
aI1432
asI1761
(lp1762
I211
aI1976
aI1046
aI1907
aI1338
aI1809
asI1762
(lp1763
I492
aI531
aI882
aI1677
aI1520
aI1442
asI1763
(lp1764
I801
aI1395
aI93
aI1896
aI1088
aI1202
asI1764
(lp1765
I815
aI382
aI1668
aI284
aI375
aI385
asI1765
(lp1766
I470
aI151
aI332
aI592
aI1105
aI86
asI1766
(lp1767
I1058
aI1497
aI1290
aI1126
aI154
aI2034
asI1767
(lp1768
I427
aI1106
aI952
aI105
aI975
aI1585
asI1768
(lp1769
I455
aI1008
aI506
aI980
aI2165
aI1263
asI1769
(lp1770
I5
aI1776
aI159
aI1287
aI1743
aI545
asI1770
(lp1771
I1051
aI529
aI1180
aI2118
aI1026
aI1395
asI1771
(lp1772
I218
aI951
aI211
aI216
aI2053
aI1562
asI1772
(lp1773
I1842
aI1241
aI1953
aI307
aI1443
aI730
asI1773
(lp1774
I823
aI241
aI2169
aI993
aI1232
aI1041
asI1774
(lp1775
I2058
aI1431
aI370
aI1092
aI1736
aI633
asI1775
(lp1776
I478
aI679
aI517
aI331
aI252
aI450
asI1776
(lp1777
I1769
aI1205
aI350
aI557
aI1726
aI1116
asI1777
(lp1778
I903
aI769
aI1434
aI1829
aI1831
aI1034
asI1778
(lp1779
I1790
aI1344
aI2106
aI2069
aI1898
aI1335
asI1779
(lp1780
I1756
aI1702
aI445
aI406
aI1662
aI2136
asI1780
(lp1781
I1439
aI1985
aI1871
aI155
aI179
aI1548
asI1781
(lp1782
I86
aI1045
aI787
aI2073
aI1463
aI201
asI1782
(lp1783
I1982
aI564
aI32
aI1349
aI1739
aI751
asI1783
(lp1784
I783
aI921
aI1010
aI2092
aI1597
aI2158
asI1784
(lp1785
I1610
aI2163
aI1125
aI658
aI2180
aI1863
asI1785
(lp1786
I932
aI440
aI510
aI1067
aI141
aI447
asI1786
(lp1787
I1478
aI1341
aI157
aI1726
aI6
aI1056
asI1787
(lp1788
I234
aI87
aI2047
aI695
aI804
aI1143
asI1788
(lp1789
I746
aI1874
aI1039
aI58
aI347
aI1670
asI1789
(lp1790
I1644
aI599
aI2107
aI179
aI1432
aI910
asI1790
(lp1791
I1759
aI1778
aI1246
aI218
aI1476
aI99
asI1791
(lp1792
I828
aI1919
aI2028
aI2066
aI1758
aI2012
asI1792
(lp1793
I1996
aI226
aI925
aI1913
aI1842
aI1113
asI1793
(lp1794
I2019
aI928
aI632
aI944
aI781
aI307
asI1794
(lp1795
I1164
aI1295
aI893
aI1539
aI1552
aI969
asI1795
(lp1796
I1038
aI1042
aI1088
aI363
aI297
aI804
asI1796
(lp1797
I594
aI540
aI892
aI1546
aI1995
aI134
asI1797
(lp1798
I2052
aI330
aI1094
aI198
aI679
aI1287
asI1798
(lp1799
I790
aI606
aI699
aI515
aI1840
aI1044
asI1799
(lp1800
I678
aI114
aI1842
aI449
aI1609
aI1681
asI1800
(lp1801
I395
aI1335
aI2008
aI2147
aI2174
aI777
asI1801
(lp1802
I1016
aI541
aI289
aI1081
aI962
aI1311
asI1802
(lp1803
I1509
aI1487
aI75
aI167
aI1588
aI854
asI1803
(lp1804
I166
aI1545
aI664
aI1874
aI808
aI205
asI1804
(lp1805
I1288
aI846
aI2013
aI1980
aI1195
aI293
asI1805
(lp1806
I984
aI932
aI1587
aI1925
aI108
aI1574
asI1806
(lp1807
I935
aI1925
aI2160
aI142
aI598
aI603
asI1807
(lp1808
I1902
aI1154
aI198
aI36
aI443
aI120
asI1808
(lp1809
I1531
aI1840
aI68
aI191
aI873
aI246
asI1809
(lp1810
I1928
aI2078
aI1900
aI2067
aI1761
aI238
asI1810
(lp1811
I1563
aI662
aI1905
aI1257
aI1223
aI461
asI1811
(lp1812
I1339
aI1986
aI823
aI644
aI720
aI538
asI1812
(lp1813
I1550
aI491
aI2153
aI495
aI498
aI2087
asI1813
(lp1814
I1687
aI1948
aI1382
aI583
aI1925
aI1901
asI1814
(lp1815
I800
aI415
aI360
aI76
aI1436
aI1898
asI1815
(lp1816
I1722
aI2066
aI611
aI1576
aI366
aI809
asI1816
(lp1817
I2020
aI1387
aI0
aI1419
aI763
aI793
asI1817
(lp1818
I321
aI1833
aI877
aI1299
aI685
aI2110
asI1818
(lp1819
I1488
aI717
aI511
aI225
aI5
aI321
asI1819
(lp1820
I80
aI1189
aI682
aI551
aI1239
aI318
asI1820
(lp1821
I158
aI60
aI1301
aI2123
aI706
aI488
asI1821
(lp1822
I126
aI1398
aI1524
aI279
aI1203
aI1458
asI1822
(lp1823
I970
aI82
aI1406
aI1760
aI1108
aI474
asI1823
(lp1824
I1884
aI1688
aI2075
aI681
aI786
aI1868
asI1824
(lp1825
I1102
aI118
aI1098
aI654
aI1523
aI694
asI1825
(lp1826
I1703
aI129
aI13
aI790
aI329
aI2130
asI1826
(lp1827
I878
aI1014
aI1118
aI1977
aI300
aI1278
asI1827
(lp1828
I468
aI2076
aI661
aI1854
aI510
aI944
asI1828
(lp1829
I2149
aI1281
aI255
aI665
aI1257
aI298
asI1829
(lp1830
I1048
aI953
aI1777
aI1272
aI790
aI517
asI1830
(lp1831
I1401
aI704
aI1313
aI160
aI182
aI1941
asI1831
(lp1832
I1440
aI826
aI703
aI1152
aI1138
aI1777
asI1832
(lp1833
I1513
aI1093
aI1720
aI1253
aI469
aI136
asI1833
(lp1834
I1817
aI612
aI2083
aI1717
aI1006
aI265
asI1834
(lp1835
I1383
aI1038
aI1881
aI2056
aI723
aI417
asI1835
(lp1836
I294
aI1272
aI1005
aI2149
aI618
aI757
asI1836
(lp1837
I84
aI981
aI1850
aI1292
aI2166
aI1368
asI1837
(lp1838
I605
aI168
aI2003
aI290
aI895
aI1492
asI1838
(lp1839
I1984
aI545
aI2124
aI1911
aI680
aI1181
asI1839
(lp1840
I2008
aI1717
aI1112
aI1903
aI1176
aI112
asI1840
(lp1841
I1808
aI859
aI1119
aI108
aI2041
aI1798
asI1841
(lp1842
I831
aI1419
aI1508
aI1611
aI952
aI1544
asI1842
(lp1843
I2146
aI1772
aI61
aI1799
aI1877
aI1792
asI1843
(lp1844
I1265
aI787
aI974
aI29
aI928
aI431
asI1844
(lp1845
I1603
aI19
aI1328
aI1884
aI969
aI1478
asI1845
(lp1846
I769
aI974
aI1251
aI957
aI447
aI535
asI1846
(lp1847
I550
aI1472
aI1016
aI288
aI1248
aI1706
asI1847
(lp1848
I930
aI1663
aI1139
aI1121
aI238
aI1171
asI1848
(lp1849
I1495
aI485
aI542
aI1278
aI1274
aI1474
asI1849
(lp1850
I447
aI1673
aI1729
aI361
aI1104
aI1301
asI1850
(lp1851
I1951
aI824
aI569
aI1836
aI1992
aI961
asI1851
(lp1852
I1710
aI198
aI1736
aI1666
aI511
aI725
asI1852
(lp1853
I1012
aI917
aI1106
aI829
aI2123
aI179
asI1853
(lp1854
I1252
aI842
aI1911
aI154
aI1353
aI1391
asI1854
(lp1855
I1135
aI323
aI1827
aI1506
aI58
aI1693
asI1855
(lp1856
I803
aI401
aI913
aI1942
aI691
aI477
asI1856
(lp1857
I1545
aI1538
aI1453
aI700
aI2063
aI760
asI1857
(lp1858
I29
aI579
aI2076
aI1300
aI943
aI1296
asI1858
(lp1859
I381
aI2176
aI1017
aI7
aI1440
aI283
asI1859
(lp1860
I374
aI1558
aI924
aI586
aI536
aI1870
asI1860
(lp1861
I1739
aI716
aI26
aI1370
aI485
aI2168
asI1861
(lp1862
I1361
aI312
aI1383
aI847
aI826
aI779
asI1862
(lp1863
I1576
aI1616
aI1370
aI1504
aI1222
aI261
asI1863
(lp1864
I1463
aI1418
aI1296
aI1676
aI1784
aI610
asI1864
(lp1865
I1727
aI1898
aI232
aI1951
aI628
aI904
asI1865
(lp1866
I1735
aI1618
aI1611
aI984
aI1412
aI1510
asI1866
(lp1867
I634
aI1711
aI1410
aI1617
aI1428
aI933
asI1867
(lp1868
I551
aI310
aI1589
aI128
aI1990
aI227
asI1868
(lp1869
I1480
aI2097
aI1152
aI2026
aI1823
aI166
asI1869
(lp1870
I226
aI1268
aI1183
aI2139
aI2069
aI965
asI1870
(lp1871
I1092
aI2126
aI1231
aI977
aI1859
aI1224
asI1871
(lp1872
I1371
aI691
aI69
aI1780
aI2037
aI745
asI1872
(lp1873
I982
aI1371
aI1430
aI1515
aI1958
aI2000
asI1873
(lp1874
I1357
aI172
aI806
aI304
aI1385
aI1500
asI1874
(lp1875
I1788
aI284
aI1803
aI1553
aI8
aI1310
asI1875
(lp1876
I1008
aI1625
aI231
aI1267
aI830
aI891
asI1876
(lp1877
I244
aI1309
aI335
aI1729
aI76
aI2174
asI1877
(lp1878
I1060
aI243
aI1265
aI1362
aI1458
aI1842
asI1878
(lp1879
I1366
aI361
aI625
aI376
aI1409
aI1035
asI1879
(lp1880
I917
aI316
aI1236
aI898
aI1558
aI1251
asI1880
(lp1881
I766
aI1384
aI226
aI341
aI518
aI232
asI1881
(lp1882
I579
aI1681
aI390
aI1834
aI915
aI1653
asI1882
(lp1883
I707
aI828
aI1104
aI1148
aI838
aI2009
asI1883
(lp1884
I1560
aI24
aI160
aI2102
aI1478
aI203
asI1884
(lp1885
I1287
aI1823
aI1844
aI757
aI44
aI1213
asI1885
(lp1886
I1562
aI204
aI1683
aI1086
aI1208
aI389
asI1886
(lp1887
I851
aI635
aI522
aI385
aI865
aI2017
asI1887
(lp1888
I1957
aI1913
aI271
aI568
aI632
aI448
asI1888
(lp1889
I676
aI1727
aI1083
aI765
aI945
aI652
asI1889
(lp1890
I2169
aI229
aI5
aI400
aI1752
aI264
asI1890
(lp1891
I1992
aI16
aI917
aI783
aI1080
aI1355
asI1891
(lp1892
I1144
aI1263
aI456
aI396
aI1035
aI2071
asI1892
(lp1893
I1303
aI681
aI1063
aI1638
aI657
aI2128
asI1893
(lp1894
I912
aI1675
aI1733
aI1910
aI746
aI1158
asI1894
(lp1895
I1000
aI751
aI472
aI1478
aI1150
aI1013
asI1895
(lp1896
I479
aI565
aI53
aI602
aI467
aI478
asI1896
(lp1897
I667
aI126
aI1763
aI60
aI293
aI1119
asI1897
(lp1898
I2106
aI942
aI1569
aI195
aI341
aI1526
asI1898
(lp1899
I1864
aI373
aI58
aI1297
aI1814
aI1778
asI1899
(lp1900
I544
aI469
aI2067
aI244
aI410
aI1758
asI1900
(lp1901
I1701
aI2154
aI2055
aI1809
aI1273
aI1934
asI1901
(lp1902
I82
aI630
aI1970
aI2074
aI1813
aI750
asI1902
(lp1903
I60
aI1807
aI1327
aI473
aI1328
aI274
asI1903
(lp1904
I400
aI1632
aI1839
aI962
aI559
aI1096
asI1904
(lp1905
I1206
aI1466
aI528
aI496
aI2167
aI331
asI1905
(lp1906
I1668
aI1640
aI1002
aI1810
aI1916
aI1093
asI1906
(lp1907
I2028
aI1006
aI449
aI1432
aI901
aI1552
asI1907
(lp1908
I736
aI1968
aI1761
aI1551
aI316
aI908
asI1908
(lp1909
I289
aI864
aI1151
aI852
aI1467
aI430
asI1909
(lp1910
I1981
aI1072
aI284
aI1715
aI576
aI1477
asI1910
(lp1911
I1251
aI94
aI1893
aI1392
aI473
aI625
asI1911
(lp1912
I570
aI568
aI1838
aI1853
aI249
aI939
asI1912
(lp1913
I1608
aI1612
aI451
aI751
aI1464
aI418
asI1913
(lp1914
I1887
aI723
aI1792
aI1132
aI1422
aI2058
asI1914
(lp1915
I1925
aI759
aI898
aI2005
aI1646
aI1404
asI1915
(lp1916
I123
aI789
aI1558
aI1698
aI809
aI272
asI1916
(lp1917
I1101
aI792
aI1468
aI196
aI2182
aI1905
asI1917
(lp1918
I1065
aI2064
aI346
aI356
aI363
aI1024
asI1918
(lp1919
I1507
aI1603
aI1275
aI1618
aI674
aI422
asI1919
(lp1920
I1791
aI2047
aI1258
aI477
aI164
aI701
asI1920
(lp1921
I991
aI65
aI1926
aI1242
aI908
aI930
asI1921
(lp1922
I313
aI1224
aI593
aI512
aI406
aI816
asI1922
(lp1923
I2183
aI2030
aI483
aI188
aI359
aI295
asI1923
(lp1924
I1927
aI528
aI308
aI256
aI1753
aI912
asI1924
(lp1925
I1112
aI1539
aI1730
aI1547
aI2179
aI2145
asI1925
(lp1926
I1806
aI1914
aI1805
aI487
aI1733
aI1813
asI1926
(lp1927
I1693
aI417
aI1378
aI1920
aI118
aI1406
asI1927
(lp1928
I1474
aI1923
aI1404
aI2085
aI726
aI859
asI1928
(lp1929
I490
aI1809
aI1368
aI877
aI346
aI531
asI1929
(lp1930
I1235
aI329
aI2164
aI882
aI512
aI669
asI1930
(lp1931
I1637
aI776
aI1465
aI414
aI749
aI1712
asI1931
(lp1932
I311
aI596
aI954
aI1433
aI487
aI934
asI1932
(lp1933
I1571
aI520
aI39
aI434
aI1471
aI494
asI1933
(lp1934
I494
aI196
aI741
aI920
aI1354
aI325
asI1934
(lp1935
I1388
aI507
aI362
aI1955
aI1900
aI1072
asI1935
(lp1936
I2133
aI1322
aI2121
aI1441
aI985
aI1437
asI1936
(lp1937
I1421
aI1330
aI620
aI1468
aI1445
aI1110
asI1937
(lp1938
I735
aI1530
aI1040
aI2121
aI1381
aI655
asI1938
(lp1939
I2081
aI844
aI1996
aI2083
aI1687
aI928
asI1939
(lp1940
I1322
aI1388
aI1638
aI102
aI1027
aI671
asI1940
(lp1941
I934
aI1361
aI1348
aI1588
aI2177
aI754
asI1941
(lp1942
I1979
aI642
aI1206
aI1606
aI1830
aI651
asI1942
(lp1943
I113
aI533
aI1855
aI1020
aI1685
aI1176
asI1943
(lp1944
I845
aI408
aI964
aI1469
aI450
aI2135
asI1944
(lp1945
I36
aI2043
aI1744
aI761
aI622
aI1100
asI1945
(lp1946
I349
aI83
aI468
aI612
aI1372
aI375
asI1946
(lp1947
I1011
aI1317
aI932
aI16
aI1474
aI867
asI1947
(lp1948
I1445
aI2034
aI381
aI960
aI1706
aI70
asI1948
(lp1949
I1813
aI255
aI1753
aI913
aI292
aI1232
asI1949
(lp1950
I19
aI836
aI1165
aI1498
aI1204
aI518
asI1950
(lp1951
I1122
aI964
aI1746
aI578
aI571
aI1337
asI1951
(lp1952
I297
aI1850
aI1864
aI1136
aI502
aI880
asI1952
(lp1953
I480
aI1225
aI357
aI97
aI1117
aI536
asI1953
(lp1954
I785
aI1400
aI260
aI1772
aI1976
aI1383
asI1954
(lp1955
I56
aI332
aI1137
aI1294
aI867
aI1667
asI1955
(lp1956
I2038
aI1467
aI1934
aI764
aI70
aI1053
asI1956
(lp1957
I945
aI1999
aI1097
aI1385
aI1608
aI1370
asI1957
(lp1958
I1246
aI1887
aI938
aI750
aI801
aI1979
asI1958
(lp1959
I136
aI1569
aI2021
aI366
aI1060
aI1872
asI1959
(lp1960
I770
aI558
aI276
aI404
aI358
aI427
asI1960
(lp1961
I1975
aI309
aI1486
aI464
aI1534
aI1964
asI1961
(lp1962
I235
aI1989
aI1233
aI652
aI935
aI1012
asI1962
(lp1963
I1483
aI421
aI2115
aI1407
aI99
aI139
asI1963
(lp1964
I1980
aI629
aI1522
aI1464
aI1367
aI271
asI1964
(lp1965
I929
aI270
aI484
aI358
aI1960
aI1735
asI1965
(lp1966
I1712
aI692
aI43
aI1038
aI2068
aI2146
asI1966
(lp1967
I1454
aI573
aI152
aI1556
aI1594
aI190
asI1967
(lp1968
I1976
aI354
aI1229
aI90
aI1019
aI1155
asI1968
(lp1969
I1907
aI749
aI2029
aI992
aI393
aI668
asI1969
(lp1970
I1310
aI718
aI1323
aI1011
aI52
aI376
asI1970
(lp1971
I788
aI100
aI28
aI1901
aI2012
aI240
asI1971
(lp1972
I680
aI1306
aI779
aI1271
aI1356
aI268
asI1972
(lp1973
I213
aI88
aI1451
aI1237
aI289
aI1149
asI1973
(lp1974
I125
aI868
aI816
aI537
aI39
aI826
asI1974
(lp1975
I621
aI422
aI1479
aI809
aI947
aI1045
asI1975
(lp1976
I582
aI1960
aI102
aI136
aI1084
aI1374
asI1976
(lp1977
I1761
aI1967
aI1565
aI314
aI1587
aI1953
asI1977
(lp1978
I1228
aI512
aI1826
aI560
aI1540
aI334
asI1978
(lp1979
I802
aI1243
aI195
aI1047
aI286
aI2022
asI1979
(lp1980
I91
aI1941
aI846
aI2170
aI1957
aI2109
asI1980
(lp1981
I2056
aI1963
aI1804
aI888
aI370
aI189
asI1981
(lp1982
I40
aI1909
aI1126
aI1127
aI948
aI1188
asI1982
(lp1983
I968
aI1782
aI1562
aI1123
aI486
aI263
asI1983
(lp1984
I1396
aI292
aI309
aI166
aI13
aI877
asI1984
(lp1985
I862
aI1838
aI242
aI767
aI765
aI1186
asI1985
(lp1986
I1780
aI1706
aI129
aI88
aI827
aI1273
asI1986
(lp1987
I1811
aI2014
aI1500
aI707
aI1243
aI1002
asI1987
(lp1988
I1415
aI1494
aI868
aI2037
aI885
aI1179
asI1988
(lp1989
I750
aI1383
aI2111
aI2171
aI1207
aI885
asI1989
(lp1990
I1961
aI23
aI103
aI1140
aI2149
aI785
asI1990
(lp1991
I1752
aI785
aI1740
aI1167
aI1606
aI1867
asI1991
(lp1992
I2160
aI1620
aI533
aI1156
aI635
aI899
asI1992
(lp1993
I1391
aI1890
aI640
aI540
aI896
aI1850
asI1993
(lp1994
I1172
aI2112
aI1147
aI1672
aI1580
aI55
asI1994
(lp1995
I1443
aI1589
aI301
aI1653
aI575
aI643
asI1995
(lp1996
I943
aI628
aI135
aI1077
aI793
aI1796
asI1996
(lp1997
I2003
aI1792
aI51
aI1938
aI1368
aI888
asI1997
(lp1998
I90
aI1686
aI296
aI443
aI805
aI1546
asI1998
(lp1999
I237
aI1365
aI2095
aI1463
aI572
aI1411
asI1999
(lp2000
I1956
aI1297
aI162
aI96
aI1123
aI292
asI2000
(lp2001
I781
aI1730
aI1191
aI1113
aI1872
aI789
asI2001
(lp2002
I1005
aI1019
aI256
aI401
aI725
aI688
asI2002
(lp2003
I1349
aI1456
aI612
aI1205
aI1757
aI160
asI2003
(lp2004
I609
aI1996
aI637
aI1837
aI584
aI932
asI2004
(lp2005
I1721
aI2029
aI1061
aI51
aI1330
aI329
asI2005
(lp2006
I1061
aI1356
aI1914
aI1021
aI2162
aI909
asI2006
(lp2007
I2080
aI1247
aI1386
aI1118
aI784
aI2137
asI2007
(lp2008
I1231
aI617
aI1540
aI1465
aI2096
aI31
asI2008
(lp2009
I1173
aI1839
aI1228
aI1800
aI2114
aI1306
asI2009
(lp2010
I225
aI20
aI205
aI1497
aI1882
aI822
asI2010
(lp2011
I838
aI730
aI770
aI1542
aI374
aI102
asI2011
(lp2012
I133
aI303
aI2062
aI174
aI1634
aI1363
asI2012
(lp2013
I496
aI616
aI40
aI497
aI1791
aI1970
asI2013
(lp2014
I14
aI1061
aI656
aI1804
aI1567
aI2047
asI2014
(lp2015
I1986
aI2098
aI1352
aI2034
aI1475
aI602
asI2015
(lp2016
I564
aI1426
aI1057
aI140
aI1034
aI138
asI2016
(lp2017
I606
aI2180
aI1716
aI1223
aI654
aI1580
asI2017
(lp2018
I1629
aI2096
aI1523
aI1100
aI1886
aI1427
asI2018
(lp2019
I1672
aI189
aI1226
aI547
aI1033
aI996
asI2019
(lp2020
I703
aI1793
aI2118
aI675
aI1402
aI1745
asI2020
(lp2021
I1146
aI1816
aI369
aI501
aI530
aI1610
asI2021
(lp2022
I971
aI798
aI581
aI1958
aI296
aI356
asI2022
(lp2023
I1503
aI1421
aI746
aI933
aI1978
aI951
asI2023
(lp2024
I1350
aI451
aI1630
aI12
aI1720
aI1529
asI2024
(lp2025
I1491
aI1145
aI2068
aI14
aI699
aI1068
asI2025
(lp2026
I1594
aI1429
aI2098
aI1431
aI517
aI972
asI2026
(lp2027
I543
aI378
aI1868
aI276
aI1233
aI2131
asI2027
(lp2028
I906
aI91
aI340
aI113
aI729
aI1495
asI2028
(lp2029
I78
aI1906
aI101
aI1791
aI156
aI1503
asI2029
(lp2030
I2004
aI711
aI116
aI1968
aI1189
aI1282
asI2030
(lp2031
I1922
aI753
aI752
aI1499
aI1728
aI1625
asI2031
(lp2032
I888
aI1635
aI695
aI1671
aI1708
aI1557
asI2032
(lp2033
I1315
aI93
aI1075
aI103
aI552
aI594
asI2033
(lp2034
I763
aI727
aI1293
aI1585
aI1484
aI647
asI2034
(lp2035
I1947
aI935
aI2014
aI1153
aI1766
aI21
asI2035
(lp2036
I1434
aI1676
aI887
aI1461
aI1010
aI989
asI2036
(lp2037
I950
aI961
aI1602
aI199
aI1681
aI985
asI2037
(lp2038
I1035
aI603
aI1987
aI1037
aI2078
aI1871
asI2038
(lp2039
I1298
aI1955
aI667
aI1501
aI1643
aI71
asI2039
(lp2040
I277
aI1704
aI2042
aI1318
aI1556
aI1571
asI2040
(lp2041
I816
aI228
aI515
aI1174
aI2091
aI1422
asI2041
(lp2042
I47
aI808
aI2053
aI1320
aI1424
aI1840
asI2042
(lp2043
I558
aI2108
aI904
aI2039
aI1504
aI2140
asI2043
(lp2044
I1944
aI4
aI914
aI1577
aI1057
aI673
asI2044
(lp2045
I1075
aI2104
aI383
aI1005
aI1686
aI388
asI2045
(lp2046
I148
aI538
aI2136
aI987
aI104
aI524
asI2046
(lp2047
I662
aI1645
aI66
aI200
aI262
aI2171
asI2047
(lp2048
I1919
aI1032
aI709
aI1787
aI2013
aI903
asI2048
(lp2049
I936
aI922
aI1666
aI1543
aI475
aI1201
asI2049
(lp2050
I1485
aI799
aI97
aI1105
aI74
aI460
asI2050
(lp2051
I759
aI1364
aI45
aI375
aI440
aI1074
asI2051
(lp2052
I705
aI495
aI1200
aI659
aI926
aI383
asI2052
(lp2053
I214
aI1797
aI1056
aI1097
aI91
aI2080
asI2053
(lp2054
I576
aI128
aI19
aI2041
aI543
aI1771
asI2054
(lp2055
I435
aI1430
aI25
aI905
aI1192
aI333
asI2055
(lp2056
I437
aI894
aI1350
aI1900
aI1649
aI1589
asI2056
(lp2057
I518
aI1980
aI1834
aI45
aI416
aI1325
asI2057
(lp2058
I525
aI521
aI14
aI228
aI2087
aI1228
asI2058
(lp2059
I1344
aI1774
aI1608
aI2155
aI1913
aI941
asI2059
(lp2060
I1643
aI1121
aI404
aI859
aI1314
aI284
asI2060
(lp2061
I1368
aI1606
aI854
aI649
aI1147
aI2126
asI2061
(lp2062
I507
aI1079
aI583
aI1176
aI1627
aI753
asI2062
(lp2063
I1524
aI830
aI1050
aI2011
aI1157
aI781
asI2063
(lp2064
I1449
aI182
aI589
aI973
aI307
aI1856
asI2064
(lp2065
I1917
aI1313
aI1351
aI1190
aI1099
aI342
asI2065
(lp2066
I626
aI557
aI788
aI1027
aI1461
aI901
asI2066
(lp2067
I1815
aI725
aI1791
aI1224
aI2159
aI299
asI2067
(lp2068
I618
aI1670
aI1809
aI1899
aI68
aI976
asI2068
(lp2069
I784
aI420
aI574
aI2024
aI279
aI1965
asI2069
(lp2070
I2117
aI1622
aI1778
aI187
aI968
aI1869
asI2070
(lp2071
I2119
aI999
aI728
aI171
aI850
aI1749
asI2071
(lp2072
I1082
aI474
aI1141
aI550
aI1891
aI608
asI2072
(lp2073
I583
aI1694
aI2142
aI1367
aI2147
aI637
asI2073
(lp2074
I389
aI1671
aI1781
aI1595
aI1601
aI1590
asI2074
(lp2075
I219
aI1054
aI1901
aI837
aI1749
aI1707
asI2075
(lp2076
I387
aI911
aI675
aI1823
aI669
aI1710
asI2076
(lp2077
I1827
aI1305
aI1582
aI1857
aI1319
aI1334
asI2077
(lp2078
I1689
aI1293
aI223
aI947
aI1357
aI829
asI2078
(lp2079
I1809
aI109
aI27
aI387
aI1431
aI2037
asI2079
(lp2080
I531
aI1543
aI225
aI1714
aI1629
aI1089
asI2080
(lp2081
I529
aI2006
aI118
aI573
aI2052
aI68
asI2081
(lp2082
I860
aI1938
aI1161
aI1613
aI134
aI196
asI2082
(lp2083
I1389
aI1756
aI2114
aI1483
aI464
aI1713
asI2083
(lp2084
I1143
aI1058
aI1938
aI1833
aI1202
aI820
asI2084
(lp2085
I271
aI763
aI1529
aI1565
aI916
aI2108
asI2085
(lp2086
I2163
aI604
aI1927
aI1122
aI1654
aI605
asI2086
(lp2087
I857
aI1021
aI1182
aI863
aI2164
aI511
asI2087
(lp2088
I89
aI592
aI183
aI337
aI1812
aI2057
asI2088
(lp2089
I1090
aI353
aI339
aI1508
aI730
aI1304
asI2089
(lp2090
I1348
aI2159
aI2096
aI696
aI820
aI1125
asI2090
(lp2091
I1609
aI77
aI217
aI1682
aI829
aI748
asI2091
(lp2092
I1458
aI1434
aI958
aI2160
aI1079
aI2040
asI2092
(lp2093
I1161
aI1108
aI1783
aI75
aI1671
aI664
asI2093
(lp2094
I1279
aI242
aI353
aI518
aI1663
aI396
asI2094
(lp2095
I59
aI784
aI629
aI146
aI471
aI1742
asI2095
(lp2096
I693
aI37
aI1068
aI1998
aI1503
aI571
asI2096
(lp2097
I2017
aI34
aI1651
aI2089
aI2175
aI2007
asI2097
(lp2098
I1868
aI580
aI910
aI484
aI2122
aI1317
asI2098
(lp2099
I2014
aI1758
aI621
aI2025
aI1579
aI1553
asI2099
(lp2100
I230
aI522
aI448
aI54
aI539
aI374
asI2100
(lp2101
I2141
aI1112
aI708
aI716
aI861
aI635
asI2101
(lp2102
I2150
aI1100
aI822
aI857
aI1252
aI221
asI2102
(lp2103
I493
aI107
aI1883
aI125
aI1704
aI686
asI2103
(lp2104
I1377
aI1025
aI1195
aI1579
aI613
aI1674
asI2104
(lp2105
I2044
aI1222
aI155
aI991
aI1707
aI592
asI2105
(lp2106
I753
aI251
aI635
aI1507
aI1541
aI0
asI2106
(lp2107
I545
aI1897
aI1102
aI1778
aI1390
aI1465
asI2107
(lp2108
I298
aI1444
aI1029
aI1789
aI1136
aI48
asI2108
(lp2109
I2042
aI1550
aI450
aI148
aI2084
aI323
asI2109
(lp2110
I1022
aI1433
aI1509
aI820
aI1979
aI873
asI2110
(lp2111
I12
aI275
aI424
aI282
aI1817
aI1144
asI2111
(lp2112
I861
aI1326
aI372
aI1988
aI243
aI1219
asI2112
(lp2113
I1993
aI1726
aI119
aI320
aI2170
aI73
asI2113
(lp2114
I1068
aI948
aI132
aI504
aI812
aI229
asI2114
(lp2115
I914
aI958
aI908
aI2082
aI875
aI2008
asI2115
(lp2116
I344
aI575
aI1242
aI1962
aI1364
aI2141
asI2116
(lp2117
I300
aI554
aI894
aI127
aI627
aI358
asI2117
(lp2118
I170
aI2069
aI1755
aI270
aI914
aI838
asI2118
(lp2119
I1293
aI1551
aI1770
aI2019
aI579
aI1381
asI2119
(lp2120
I1429
aI2070
aI668
aI858
aI877
aI2169
asI2120
(lp2121
I1537
aI1269
aI524
aI478
aI1506
aI1312
asI2121
(lp2122
I178
aI1744
aI1937
aI1935
aI1182
aI465
asI2122
(lp2123
I1566
aI1746
aI482
aI1277
aI721
aI2097
asI2123
(lp2124
I1431
aI1617
aI1820
aI1533
aI1068
aI1852
asI2124
(lp2125
I1742
aI1274
aI1408
aI1838
aI1303
aI584
asI2125
(lp2126
I577
aI274
aI1343
aI935
aI1694
aI1377
asI2126
(lp2127
I1870
aI436
aI261
aI975
aI2060
aI1569
asI2127
(lp2128
I559
aI78
aI194
aI525
aI1271
aI1319
asI2128
(lp2129
I1338
aI1416
aI185
aI1566
aI1892
aI895
asI2129
(lp2130
I696
aI827
aI1633
aI1051
aI1038
aI792
asI2130
(lp2131
I1186
aI855
aI1035
aI915
aI1825
aI1620
asI2131
(lp2132
I571
aI1071
aI1108
aI563
aI2026
aI486
asI2132
(lp2133
I873
aI1201
aI1427
aI1594
aI565
aI1393
asI2133
(lp2134
I1740
aI1935
aI1613
aI457
aI167
aI749
asI2134
(lp2135
I154
aI1333
aI359
aI795
aI951
aI578
asI2135
(lp2136
I1300
aI950
aI1737
aI410
aI1943
aI623
asI2136
(lp2137
I632
aI199
aI1055
aI2045
aI1779
aI391
asI2137
(lp2138
I1158
aI1490
aI156
aI593
aI2006
aI963
asI2138
(lp2139
I259
aI1748
aI1198
aI223
aI768
aI508
asI2139
(lp2140
I1606
aI622
aI1869
aI513
aI964
aI109
asI2140
(lp2141
I477
aI346
aI1269
aI1226
aI2042
aI713
asI2141
(lp2142
I1573
aI2100
aI1353
aI1044
aI2115
aI964
asI2142
(lp2143
I1272
aI1091
aI1601
aI2072
aI1622
aI1145
asI2143
(lp2144
I608
aI1173
aI403
aI509
aI640
aI1573
asI2144
(lp2145
I499
aI703
aI1122
aI309
aI401
aI812
asI2145
(lp2146
I2151
aI2181
aI1488
aI2180
aI1924
aI330
asI2146
(lp2147
I561
aI1842
aI1549
aI452
aI1965
aI917
asI2147
(lp2148
I173
aI1287
aI1800
aI1523
aI776
aI2072
asI2148
(lp2149
I1147
aI1129
aI325
aI1442
aI1586
aI1307
asI2149
(lp2150
I623
aI1828
aI1835
aI94
aI455
aI1989
asI2150
(lp2151
I1409
aI2101
aI243
aI1095
aI459
aI1663
asI2151
(lp2152
I386
aI2145
aI203
aI232
aI534
aI957
asI2152
(lp2153
I1510
aI1153
aI859
aI567
aI715
aI315
asI2153
(lp2154
I697
aI899
aI576
aI1812
aI983
aI30
asI2154
(lp2155
I1900
aI121
aI423
aI1737
aI887
aI1324
asI2155
(lp2156
I741
aI1402
aI2058
aI653
aI650
aI1446
asI2156
(lp2157
I541
aI833
aI454
aI792
aI1172
aI296
asI2157
(lp2158
I532
aI1056
aI1689
aI26
aI1377
aI660
asI2158
(lp2159
I1114
aI920
aI2163
aI49
aI1783
aI1430
asI2159
(lp2160
I2089
aI1198
aI1642
aI1106
aI1050
aI2066
asI2160
(lp2161
I737
aI1991
aI2091
aI1806
aI528
aI87
asI2161
(lp2162
I1015
aI1053
aI148
aI608
aI842
aI241
asI2162
(lp2163
I1499
aI1639
aI1219
aI144
aI788
aI2005
asI2163
(lp2164
I1784
aI2085
aI447
aI2158
aI667
aI802
asI2164
(lp2165
I429
aI54
aI1593
aI1929
aI929
aI2086
asI2165
(lp2166
I280
aI178
aI464
aI266
aI649
aI1768
asI2166
(lp2167
I1121
aI135
aI1458
aI1303
aI549
aI1836
asI2167
(lp2168
I366
aI1643
aI1184
aI1295
aI328
aI1904
asI2168
(lp2169
I710
aI193
aI1273
aI688
aI1860
aI1494
asI2169
(lp2170
I751
aI1889
aI1279
aI1773
aI2119
aI797
asI2170
(lp2171
I530
aI499
aI1979
aI1605
aI694
aI2112
asI2171
(lp2172
I1667
aI409
aI1988
aI535
aI2046
aI350
asI2172
(lp2173
I1024
aI1003
aI563
aI1135
aI1308
aI167
asI2173
(lp2174
I31
aI1354
aI744
aI758
aI120
aI1659
asI2174
(lp2175
I511
aI1256
aI852
aI972
aI1876
aI1800
asI2175
(lp2176
I1652
aI746
aI443
aI164
aI644
aI2096
asI2176
(lp2177
I1858
aI598
aI886
aI1275
aI1508
aI612
asI2177
(lp2178
I902
aI447
aI274
aI135
aI1085
aI1940
asI2178
(lp2179
I1171
aI952
aI416
aI1032
aI1072
aI405
asI2179
(lp2180
I812
aI1200
aI1389
aI1575
aI1285
aI1924
asI2180
(lp2181
I2016
aI966
aI2145
aI1691
aI144
aI1784
asI2181
(lp2182
I2145
aI460
aI419
aI1034
aI921
aI1419
asI2182
(lp2183
I886
aI317
aI1176
aI1447
aI426
aI1916
asI2183
(lp2184
I506
aI1922
aI1388
aI1720
aI310
aI1037
as.